
lesson8.elf:     file format elf32-avr

Sections:
Idx Name          Size      VMA       LMA       File off  Algn
  0 .text         00000d94  00000000  00000000  00000074  2**1
                  CONTENTS, ALLOC, LOAD, READONLY, CODE
  1 .bss          0000020f  00800060  00800060  00000e08  2**0
                  ALLOC
  2 .comment      00000030  00000000  00000000  00000e08  2**0
                  CONTENTS, READONLY
  3 .debug_aranges 000000d8  00000000  00000000  00000e38  2**0
                  CONTENTS, READONLY, DEBUGGING
  4 .debug_info   00001169  00000000  00000000  00000f10  2**0
                  CONTENTS, READONLY, DEBUGGING
  5 .debug_abbrev 00000485  00000000  00000000  00002079  2**0
                  CONTENTS, READONLY, DEBUGGING
  6 .debug_line   00000584  00000000  00000000  000024fe  2**0
                  CONTENTS, READONLY, DEBUGGING
  7 .debug_frame  000002e0  00000000  00000000  00002a84  2**2
                  CONTENTS, READONLY, DEBUGGING
  8 .debug_str    000003b0  00000000  00000000  00002d64  2**0
                  CONTENTS, READONLY, DEBUGGING
  9 .debug_loc    000015b7  00000000  00000000  00003114  2**0
                  CONTENTS, READONLY, DEBUGGING
 10 .debug_ranges 000000b8  00000000  00000000  000046cb  2**0
                  CONTENTS, READONLY, DEBUGGING

Disassembly of section .text:

00000000 <__vectors>:
   0:	a2 c1       	rjmp	.+836    	; 0x346 <__ctors_end>
   2:	b1 c1       	rjmp	.+866    	; 0x366 <__bad_interrupt>
   4:	b0 c1       	rjmp	.+864    	; 0x366 <__bad_interrupt>
   6:	af c1       	rjmp	.+862    	; 0x366 <__bad_interrupt>
   8:	ae c1       	rjmp	.+860    	; 0x366 <__bad_interrupt>
   a:	ad c1       	rjmp	.+858    	; 0x366 <__bad_interrupt>
   c:	ac c1       	rjmp	.+856    	; 0x366 <__bad_interrupt>
   e:	ab c1       	rjmp	.+854    	; 0x366 <__bad_interrupt>
  10:	aa c1       	rjmp	.+852    	; 0x366 <__bad_interrupt>
  12:	a9 c1       	rjmp	.+850    	; 0x366 <__bad_interrupt>
  14:	a8 c1       	rjmp	.+848    	; 0x366 <__bad_interrupt>
  16:	a7 c1       	rjmp	.+846    	; 0x366 <__bad_interrupt>
  18:	a6 c1       	rjmp	.+844    	; 0x366 <__bad_interrupt>
  1a:	a5 c1       	rjmp	.+842    	; 0x366 <__bad_interrupt>
  1c:	a4 c1       	rjmp	.+840    	; 0x366 <__bad_interrupt>
  1e:	a3 c1       	rjmp	.+838    	; 0x366 <__bad_interrupt>
  20:	a2 c1       	rjmp	.+836    	; 0x366 <__bad_interrupt>
  22:	a1 c1       	rjmp	.+834    	; 0x366 <__bad_interrupt>
  24:	a0 c1       	rjmp	.+832    	; 0x366 <__bad_interrupt>

00000026 <__trampolines_end>:
  26:	00 00       	nop
  28:	00 00       	nop
  2a:	00 00       	nop
  2c:	00 5f       	subi	r16, 0xF0	; 240
  2e:	00 00       	nop
  30:	00 07       	cpc	r16, r16
  32:	00 07       	cpc	r16, r16
  34:	00 14       	cp	r0, r0
  36:	7f 14       	cp	r7, r15
  38:	7f 14       	cp	r7, r15
  3a:	24 2a       	or	r2, r20
  3c:	7f 2a       	or	r7, r31
  3e:	12 4c       	sbci	r17, 0xC2	; 194
  40:	2c 10       	cpse	r2, r12
  42:	68 64       	ori	r22, 0x48	; 72
  44:	36 49       	sbci	r19, 0x96	; 150
  46:	55 22       	and	r5, r21
  48:	50 00       	.word	0x0050	; ????
  4a:	05 03       	mulsu	r16, r21
  4c:	00 00       	nop
  4e:	00 1c       	adc	r0, r0
  50:	22 41       	sbci	r18, 0x12	; 18
  52:	00 00       	nop
  54:	41 22       	and	r4, r17
  56:	1c 00       	.word	0x001c	; ????
  58:	14 08       	sbc	r1, r4
  5a:	3e 08       	sbc	r3, r14
  5c:	14 08       	sbc	r1, r4
  5e:	08 3e       	cpi	r16, 0xE8	; 232
  60:	08 08       	sbc	r0, r8
  62:	00 00       	nop
  64:	50 30       	cpi	r21, 0x00	; 0
  66:	00 10       	cpse	r0, r0
  68:	10 10       	cpse	r1, r0
  6a:	10 10       	cpse	r1, r0
  6c:	00 60       	ori	r16, 0x00	; 0
  6e:	60 00       	.word	0x0060	; ????
  70:	00 20       	and	r0, r0
  72:	10 08       	sbc	r1, r0
  74:	04 02       	muls	r16, r20
  76:	3e 51       	subi	r19, 0x1E	; 30
  78:	49 45       	sbci	r20, 0x59	; 89
  7a:	3e 00       	.word	0x003e	; ????
  7c:	42 7f       	andi	r20, 0xF2	; 242
  7e:	40 00       	.word	0x0040	; ????
  80:	42 61       	ori	r20, 0x12	; 18
  82:	51 49       	sbci	r21, 0x91	; 145
  84:	46 21       	and	r20, r6
  86:	41 45       	sbci	r20, 0x51	; 81
  88:	4b 31       	cpi	r20, 0x1B	; 27
  8a:	18 14       	cp	r1, r8
  8c:	12 7f       	andi	r17, 0xF2	; 242
  8e:	10 27       	eor	r17, r16
  90:	45 45       	sbci	r20, 0x55	; 85
  92:	45 39       	cpi	r20, 0x95	; 149
  94:	3c 4a       	sbci	r19, 0xAC	; 172
  96:	49 49       	sbci	r20, 0x99	; 153
  98:	30 01       	movw	r6, r0
  9a:	71 09       	sbc	r23, r1
  9c:	05 03       	mulsu	r16, r21
  9e:	36 49       	sbci	r19, 0x96	; 150
  a0:	49 49       	sbci	r20, 0x99	; 153
  a2:	36 06       	cpc	r3, r22
  a4:	49 49       	sbci	r20, 0x99	; 153
  a6:	29 1e       	adc	r2, r25
  a8:	00 36       	cpi	r16, 0x60	; 96
  aa:	36 00       	.word	0x0036	; ????
  ac:	00 00       	nop
  ae:	56 36       	cpi	r21, 0x66	; 102
  b0:	00 00       	nop
  b2:	08 14       	cp	r0, r8
  b4:	22 41       	sbci	r18, 0x12	; 18
  b6:	00 14       	cp	r0, r0
  b8:	14 14       	cp	r1, r4
  ba:	14 14       	cp	r1, r4
  bc:	00 41       	sbci	r16, 0x10	; 16
  be:	22 14       	cp	r2, r2
  c0:	08 02       	muls	r16, r24
  c2:	01 51       	subi	r16, 0x11	; 17
  c4:	09 06       	cpc	r0, r25
  c6:	32 49       	sbci	r19, 0x92	; 146
  c8:	79 41       	sbci	r23, 0x19	; 25
  ca:	3e 7e       	andi	r19, 0xEE	; 238
  cc:	11 11       	cpse	r17, r1
  ce:	11 7e       	andi	r17, 0xE1	; 225
  d0:	7f 49       	sbci	r23, 0x9F	; 159
  d2:	49 49       	sbci	r20, 0x99	; 153
  d4:	36 3e       	cpi	r19, 0xE6	; 230
  d6:	41 41       	sbci	r20, 0x11	; 17
  d8:	41 22       	and	r4, r17
  da:	7f 41       	sbci	r23, 0x1F	; 31
  dc:	41 22       	and	r4, r17
  de:	1c 7f       	andi	r17, 0xFC	; 252
  e0:	49 49       	sbci	r20, 0x99	; 153
  e2:	49 41       	sbci	r20, 0x19	; 25
  e4:	7f 09       	sbc	r23, r15
  e6:	09 09       	sbc	r16, r9
  e8:	01 3e       	cpi	r16, 0xE1	; 225
  ea:	41 49       	sbci	r20, 0x91	; 145
  ec:	49 7a       	andi	r20, 0xA9	; 169
  ee:	7f 08       	sbc	r7, r15
  f0:	08 08       	sbc	r0, r8
  f2:	7f 00       	.word	0x007f	; ????
  f4:	41 7f       	andi	r20, 0xF1	; 241
  f6:	41 00       	.word	0x0041	; ????
  f8:	20 40       	sbci	r18, 0x00	; 0
  fa:	41 3f       	cpi	r20, 0xF1	; 241
  fc:	01 7f       	andi	r16, 0xF1	; 241
  fe:	08 14       	cp	r0, r8
 100:	22 41       	sbci	r18, 0x12	; 18
 102:	7f 40       	sbci	r23, 0x0F	; 15
 104:	40 40       	sbci	r20, 0x00	; 0
 106:	40 7f       	andi	r20, 0xF0	; 240
 108:	02 0c       	add	r0, r2
 10a:	02 7f       	andi	r16, 0xF2	; 242
 10c:	7f 04       	cpc	r7, r15
 10e:	08 10       	cpse	r0, r8
 110:	7f 3e       	cpi	r23, 0xEF	; 239
 112:	41 41       	sbci	r20, 0x11	; 17
 114:	41 3e       	cpi	r20, 0xE1	; 225
 116:	7f 09       	sbc	r23, r15
 118:	09 09       	sbc	r16, r9
 11a:	06 3e       	cpi	r16, 0xE6	; 230
 11c:	41 51       	subi	r20, 0x11	; 17
 11e:	21 5e       	subi	r18, 0xE1	; 225
 120:	7f 09       	sbc	r23, r15
 122:	19 29       	or	r17, r9
 124:	46 46       	sbci	r20, 0x66	; 102
 126:	49 49       	sbci	r20, 0x99	; 153
 128:	49 31       	cpi	r20, 0x19	; 25
 12a:	01 01       	movw	r0, r2
 12c:	7f 01       	movw	r14, r30
 12e:	01 3f       	cpi	r16, 0xF1	; 241
 130:	40 40       	sbci	r20, 0x00	; 0
 132:	40 3f       	cpi	r20, 0xF0	; 240
 134:	1f 20       	and	r1, r15
 136:	40 20       	and	r4, r0
 138:	1f 3f       	cpi	r17, 0xFF	; 255
 13a:	40 38       	cpi	r20, 0x80	; 128
 13c:	40 3f       	cpi	r20, 0xF0	; 240
 13e:	63 14       	cp	r6, r3
 140:	08 14       	cp	r0, r8
 142:	63 07       	cpc	r22, r19
 144:	08 70       	andi	r16, 0x08	; 8
 146:	08 07       	cpc	r16, r24
 148:	61 51       	subi	r22, 0x11	; 17
 14a:	49 45       	sbci	r20, 0x59	; 89
 14c:	43 00       	.word	0x0043	; ????
 14e:	7f 41       	sbci	r23, 0x1F	; 31
 150:	41 00       	.word	0x0041	; ????
 152:	02 04       	cpc	r0, r2
 154:	08 10       	cpse	r0, r8
 156:	20 00       	.word	0x0020	; ????
 158:	41 41       	sbci	r20, 0x11	; 17
 15a:	7f 00       	.word	0x007f	; ????
 15c:	04 02       	muls	r16, r20
 15e:	01 02       	muls	r16, r17
 160:	04 40       	sbci	r16, 0x04	; 4
 162:	40 40       	sbci	r20, 0x00	; 0
 164:	40 40       	sbci	r20, 0x00	; 0
 166:	00 01       	movw	r0, r0
 168:	02 04       	cpc	r0, r2
 16a:	00 20       	and	r0, r0
 16c:	54 54       	subi	r21, 0x44	; 68
 16e:	54 78       	andi	r21, 0x84	; 132
 170:	7f 48       	sbci	r23, 0x8F	; 143
 172:	44 44       	sbci	r20, 0x44	; 68
 174:	38 38       	cpi	r19, 0x88	; 136
 176:	44 44       	sbci	r20, 0x44	; 68
 178:	44 20       	and	r4, r4
 17a:	38 44       	sbci	r19, 0x48	; 72
 17c:	44 48       	sbci	r20, 0x84	; 132
 17e:	7f 38       	cpi	r23, 0x8F	; 143
 180:	54 54       	subi	r21, 0x44	; 68
 182:	54 18       	sub	r5, r4
 184:	08 7e       	andi	r16, 0xE8	; 232
 186:	09 01       	movw	r0, r18
 188:	02 0c       	add	r0, r2
 18a:	52 52       	subi	r21, 0x22	; 34
 18c:	52 3e       	cpi	r21, 0xE2	; 226
 18e:	7f 08       	sbc	r7, r15
 190:	04 04       	cpc	r0, r4
 192:	78 00       	.word	0x0078	; ????
 194:	44 7d       	andi	r20, 0xD4	; 212
 196:	40 00       	.word	0x0040	; ????
 198:	20 40       	sbci	r18, 0x00	; 0
 19a:	44 3d       	cpi	r20, 0xD4	; 212
 19c:	00 7f       	andi	r16, 0xF0	; 240
 19e:	10 28       	or	r1, r0
 1a0:	44 00       	.word	0x0044	; ????
 1a2:	00 41       	sbci	r16, 0x10	; 16
 1a4:	7f 40       	sbci	r23, 0x0F	; 15
 1a6:	00 7c       	andi	r16, 0xC0	; 192
 1a8:	04 18       	sub	r0, r4
 1aa:	04 78       	andi	r16, 0x84	; 132
 1ac:	7c 08       	sbc	r7, r12
 1ae:	04 04       	cpc	r0, r4
 1b0:	78 38       	cpi	r23, 0x88	; 136
 1b2:	44 44       	sbci	r20, 0x44	; 68
 1b4:	44 38       	cpi	r20, 0x84	; 132
 1b6:	7c 14       	cp	r7, r12
 1b8:	14 14       	cp	r1, r4
 1ba:	08 08       	sbc	r0, r8
 1bc:	14 14       	cp	r1, r4
 1be:	18 7c       	andi	r17, 0xC8	; 200
 1c0:	7c 08       	sbc	r7, r12
 1c2:	04 04       	cpc	r0, r4
 1c4:	08 48       	sbci	r16, 0x88	; 136
 1c6:	54 54       	subi	r21, 0x44	; 68
 1c8:	54 20       	and	r5, r4
 1ca:	04 3f       	cpi	r16, 0xF4	; 244
 1cc:	44 40       	sbci	r20, 0x04	; 4
 1ce:	20 3c       	cpi	r18, 0xC0	; 192
 1d0:	40 40       	sbci	r20, 0x00	; 0
 1d2:	20 7c       	andi	r18, 0xC0	; 192
 1d4:	1c 20       	and	r1, r12
 1d6:	40 20       	and	r4, r0
 1d8:	1c 3c       	cpi	r17, 0xCC	; 204
 1da:	40 30       	cpi	r20, 0x00	; 0
 1dc:	40 3c       	cpi	r20, 0xC0	; 192
 1de:	44 28       	or	r4, r4
 1e0:	10 28       	or	r1, r0
 1e2:	44 0c       	add	r4, r4
 1e4:	50 50       	subi	r21, 0x00	; 0
 1e6:	50 3c       	cpi	r21, 0xC0	; 192
 1e8:	44 64       	ori	r20, 0x44	; 68
 1ea:	54 4c       	sbci	r21, 0xC4	; 196
 1ec:	44 00       	.word	0x0044	; ????
 1ee:	08 36       	cpi	r16, 0x68	; 104
 1f0:	41 00       	.word	0x0041	; ????
 1f2:	00 00       	nop
 1f4:	7f 00       	.word	0x007f	; ????
 1f6:	00 00       	nop
 1f8:	41 36       	cpi	r20, 0x61	; 97
 1fa:	08 00       	.word	0x0008	; ????
 1fc:	08 04       	cpc	r0, r8
 1fe:	08 10       	cpse	r0, r8
 200:	08 ff       	.word	0xff08	; ????
 202:	ff ff       	.word	0xffff	; ????
 204:	ff ff       	.word	0xffff	; ????
 206:	7c 12       	cpse	r7, r28
 208:	11 12       	cpse	r1, r17
 20a:	7c 7f       	andi	r23, 0xFC	; 252
 20c:	49 49       	sbci	r20, 0x99	; 153
 20e:	49 31       	cpi	r20, 0x19	; 25
 210:	7f 49       	sbci	r23, 0x9F	; 159
 212:	49 49       	sbci	r20, 0x99	; 153
 214:	36 7f       	andi	r19, 0xF6	; 246
 216:	01 01       	movw	r0, r2
 218:	01 01       	movw	r0, r2
 21a:	60 3f       	cpi	r22, 0xF0	; 240
 21c:	21 3f       	cpi	r18, 0xF1	; 241
 21e:	60 7f       	andi	r22, 0xF0	; 240
 220:	49 49       	sbci	r20, 0x99	; 153
 222:	49 41       	sbci	r20, 0x19	; 25
 224:	77 08       	sbc	r7, r7
 226:	7f 08       	sbc	r7, r15
 228:	77 22       	and	r7, r23
 22a:	41 49       	sbci	r20, 0x91	; 145
 22c:	49 36       	cpi	r20, 0x69	; 105
 22e:	7f 10       	cpse	r7, r15
 230:	08 04       	cpc	r0, r8
 232:	7f 7e       	andi	r23, 0xEF	; 239
 234:	10 09       	sbc	r17, r0
 236:	04 7e       	andi	r16, 0xE4	; 228
 238:	7f 08       	sbc	r7, r15
 23a:	14 22       	and	r1, r20
 23c:	41 40       	sbci	r20, 0x01	; 1
 23e:	3e 01       	movw	r6, r28
 240:	01 7f       	andi	r16, 0xF1	; 241
 242:	7f 02       	muls	r23, r31
 244:	0c 02       	muls	r16, r28
 246:	7f 7f       	andi	r23, 0xFF	; 255
 248:	08 08       	sbc	r0, r8
 24a:	08 7f       	andi	r16, 0xF8	; 248
 24c:	3e 41       	sbci	r19, 0x1E	; 30
 24e:	41 41       	sbci	r20, 0x11	; 17
 250:	3e 7f       	andi	r19, 0xFE	; 254
 252:	01 01       	movw	r0, r2
 254:	01 7f       	andi	r16, 0xF1	; 241
 256:	7f 09       	sbc	r23, r15
 258:	09 09       	sbc	r16, r9
 25a:	06 3e       	cpi	r16, 0xE6	; 230
 25c:	41 41       	sbci	r20, 0x11	; 17
 25e:	41 22       	and	r4, r17
 260:	01 01       	movw	r0, r2
 262:	7f 01       	movw	r14, r30
 264:	01 07       	cpc	r16, r17
 266:	48 48       	sbci	r20, 0x88	; 136
 268:	48 3f       	cpi	r20, 0xF8	; 248
 26a:	0e 11       	cpse	r16, r14
 26c:	7f 11       	cpse	r23, r15
 26e:	0e 63       	ori	r16, 0x3E	; 62
 270:	14 08       	sbc	r1, r4
 272:	14 63       	ori	r17, 0x34	; 52
 274:	3f 20       	and	r3, r15
 276:	20 3f       	cpi	r18, 0xF0	; 240
 278:	60 07       	cpc	r22, r16
 27a:	08 08       	sbc	r0, r8
 27c:	08 7f       	andi	r16, 0xF8	; 248
 27e:	7f 40       	sbci	r23, 0x0F	; 15
 280:	7e 40       	sbci	r23, 0x0E	; 14
 282:	7f 3f       	cpi	r23, 0xFF	; 255
 284:	20 3f       	cpi	r18, 0xF0	; 240
 286:	20 7f       	andi	r18, 0xF0	; 240
 288:	01 7f       	andi	r16, 0xF1	; 241
 28a:	48 48       	sbci	r20, 0x88	; 136
 28c:	30 7f       	andi	r19, 0xF0	; 240
 28e:	48 30       	cpi	r20, 0x08	; 8
 290:	00 7f       	andi	r16, 0xF0	; 240
 292:	00 7f       	andi	r16, 0xF0	; 240
 294:	48 48       	sbci	r20, 0x88	; 136
 296:	30 22       	and	r3, r16
 298:	41 49       	sbci	r20, 0x91	; 145
 29a:	49 3e       	cpi	r20, 0xE9	; 233
 29c:	7f 08       	sbc	r7, r15
 29e:	3e 41       	sbci	r19, 0x1E	; 30
 2a0:	3e 46       	sbci	r19, 0x6E	; 110
 2a2:	29 19       	sub	r18, r9
 2a4:	09 7f       	andi	r16, 0xF9	; 249
 2a6:	20 54       	subi	r18, 0x40	; 64
 2a8:	54 54       	subi	r21, 0x44	; 68
 2aa:	78 3c       	cpi	r23, 0xC8	; 200
 2ac:	4a 4a       	sbci	r20, 0xAA	; 170
 2ae:	4a 31       	cpi	r20, 0x1A	; 26
 2b0:	7c 54       	subi	r23, 0x4C	; 76
 2b2:	54 28       	or	r5, r4
 2b4:	00 7c       	andi	r16, 0xC0	; 192
 2b6:	04 04       	cpc	r0, r4
 2b8:	0c 00       	.word	0x000c	; ????
 2ba:	60 3c       	cpi	r22, 0xC0	; 192
 2bc:	24 3c       	cpi	r18, 0xC4	; 196
 2be:	60 38       	cpi	r22, 0x80	; 128
 2c0:	54 54       	subi	r21, 0x44	; 68
 2c2:	54 18       	sub	r5, r4
 2c4:	6c 10       	cpse	r6, r12
 2c6:	7c 10       	cpse	r7, r12
 2c8:	6c 00       	.word	0x006c	; ????
 2ca:	44 54       	subi	r20, 0x44	; 68
 2cc:	54 28       	or	r5, r4
 2ce:	7c 20       	and	r7, r12
 2d0:	10 08       	sbc	r1, r0
 2d2:	7c 7c       	andi	r23, 0xCC	; 204
 2d4:	21 12       	cpse	r2, r17
 2d6:	09 7c       	andi	r16, 0xC9	; 201
 2d8:	7c 10       	cpse	r7, r12
 2da:	28 44       	sbci	r18, 0x48	; 72
 2dc:	00 40       	sbci	r16, 0x00	; 0
 2de:	38 04       	cpc	r3, r8
 2e0:	04 7c       	andi	r16, 0xC4	; 196
 2e2:	7c 08       	sbc	r7, r12
 2e4:	10 08       	sbc	r1, r0
 2e6:	7c 7c       	andi	r23, 0xCC	; 204
 2e8:	10 10       	cpse	r1, r0
 2ea:	10 7c       	andi	r17, 0xC0	; 192
 2ec:	38 44       	sbci	r19, 0x48	; 72
 2ee:	44 44       	sbci	r20, 0x44	; 68
 2f0:	38 7c       	andi	r19, 0xC8	; 200
 2f2:	04 04       	cpc	r0, r4
 2f4:	04 7c       	andi	r16, 0xC4	; 196
 2f6:	7c 14       	cp	r7, r12
 2f8:	14 14       	cp	r1, r4
 2fa:	08 38       	cpi	r16, 0x88	; 136
 2fc:	44 44       	sbci	r20, 0x44	; 68
 2fe:	44 00       	.word	0x0044	; ????
 300:	04 04       	cpc	r0, r4
 302:	7c 04       	cpc	r7, r12
 304:	04 0c       	add	r0, r4
 306:	50 50       	subi	r21, 0x00	; 0
 308:	50 3c       	cpi	r21, 0xC0	; 192
 30a:	08 14       	cp	r0, r8
 30c:	7c 14       	cp	r7, r12
 30e:	08 44       	sbci	r16, 0x48	; 72
 310:	28 10       	cpse	r2, r8
 312:	28 44       	sbci	r18, 0x48	; 72
 314:	3c 20       	and	r3, r12
 316:	20 3c       	cpi	r18, 0xC0	; 192
 318:	60 0c       	add	r6, r0
 31a:	10 10       	cpse	r1, r0
 31c:	10 7c       	andi	r17, 0xC0	; 192
 31e:	7c 40       	sbci	r23, 0x0C	; 12
 320:	7c 40       	sbci	r23, 0x0C	; 12
 322:	7c 3c       	cpi	r23, 0xCC	; 204
 324:	20 3c       	cpi	r18, 0xC0	; 192
 326:	20 7c       	andi	r18, 0xC0	; 192
 328:	04 7c       	andi	r16, 0xC4	; 196
 32a:	50 50       	subi	r21, 0x00	; 0
 32c:	20 7c       	andi	r18, 0xC0	; 192
 32e:	50 20       	and	r5, r0
 330:	00 7c       	andi	r16, 0xC0	; 192
 332:	00 7c       	andi	r16, 0xC0	; 192
 334:	50 50       	subi	r21, 0x00	; 0
 336:	20 28       	or	r2, r0
 338:	44 54       	subi	r20, 0x44	; 68
 33a:	54 38       	cpi	r21, 0x84	; 132
 33c:	7c 10       	cpse	r7, r12
 33e:	38 44       	sbci	r19, 0x48	; 72
 340:	38 48       	sbci	r19, 0x88	; 136
 342:	54 34       	cpi	r21, 0x44	; 68
 344:	14 7c       	andi	r17, 0xC4	; 196

00000346 <__ctors_end>:
 346:	11 24       	eor	r1, r1
 348:	1f be       	out	0x3f, r1	; 63
 34a:	cf e5       	ldi	r28, 0x5F	; 95
 34c:	d4 e0       	ldi	r29, 0x04	; 4
 34e:	de bf       	out	0x3e, r29	; 62
 350:	cd bf       	out	0x3d, r28	; 61

00000352 <__do_clear_bss>:
 352:	22 e0       	ldi	r18, 0x02	; 2
 354:	a0 e6       	ldi	r26, 0x60	; 96
 356:	b0 e0       	ldi	r27, 0x00	; 0
 358:	01 c0       	rjmp	.+2      	; 0x35c <.do_clear_bss_start>

0000035a <.do_clear_bss_loop>:
 35a:	1d 92       	st	X+, r1

0000035c <.do_clear_bss_start>:
 35c:	af 36       	cpi	r26, 0x6F	; 111
 35e:	b2 07       	cpc	r27, r18
 360:	e1 f7       	brne	.-8      	; 0x35a <.do_clear_bss_loop>
 362:	2f d0       	rcall	.+94     	; 0x3c2 <main>
 364:	15 c5       	rjmp	.+2602   	; 0xd90 <_exit>

00000366 <__bad_interrupt>:
 366:	4c ce       	rjmp	.-872    	; 0x0 <__vectors>

00000368 <preset>:
#include "n5110.h"

void preset()
{
	
	Lcd_init();
 368:	a6 d1       	rcall	.+844    	; 0x6b6 <Lcd_init>
			
	ADCSRA |= (1<<ADEN) | (1<<ADPS2) | (1<<ADPS1) | (1<<ADPS0); //делитель 128 64 кГц
 36a:	86 b1       	in	r24, 0x06	; 6
 36c:	87 68       	ori	r24, 0x87	; 135
 36e:	86 b9       	out	0x06, r24	; 6
	
	ADMUX |= (1<<REFS1) | (1<<REFS0); // опорное напряжение
 370:	87 b1       	in	r24, 0x07	; 7
 372:	80 6c       	ori	r24, 0xC0	; 192
 374:	87 b9       	out	0x07, r24	; 7
 376:	08 95       	ret

00000378 <readAdc>:
	
}

 int readAdc(unsigned int ch){
	
	 unsigned char set_admux = ADMUX;
 378:	27 b1       	in	r18, 0x07	; 7
	 
	 set_admux &= ~((1<<MUX3) | (1<<MUX2) | (1<<MUX1) | (1<<MUX0));
 37a:	20 7f       	andi	r18, 0xF0	; 240
	
	switch(ch)
 37c:	81 30       	cpi	r24, 0x01	; 1
 37e:	91 05       	cpc	r25, r1
 380:	19 f0       	breq	.+6      	; 0x388 <readAdc+0x10>
 382:	02 97       	sbiw	r24, 0x02	; 2
 384:	19 f0       	breq	.+6      	; 0x38c <readAdc+0x14>
 386:	03 c0       	rjmp	.+6      	; 0x38e <readAdc+0x16>
	{
		case 1: set_admux |= (0<<MUX3) | (0<<MUX2) | (0<<MUX1) | (1<<MUX0); break;
 388:	21 60       	ori	r18, 0x01	; 1
 38a:	01 c0       	rjmp	.+2      	; 0x38e <readAdc+0x16>
		case 2: set_admux |= (0<<MUX3) | (0<<MUX2) | (1<<MUX1) | (0<<MUX0); break;
 38c:	22 60       	ori	r18, 0x02	; 2
		default:set_admux &= ~((1<<MUX3) | (1<<MUX2) | (1<<MUX0) | (1<<MUX0)); break;
	}
	
	ADMUX = set_admux;
 38e:	27 b9       	out	0x07, r18	; 7
	#else
		//round up by default
		__ticks_dc = (uint32_t)(ceil(fabs(__tmp)));
	#endif

	__builtin_avr_delay_cycles(__ticks_dc);
 390:	8a e1       	ldi	r24, 0x1A	; 26
 392:	8a 95       	dec	r24
 394:	f1 f7       	brne	.-4      	; 0x392 <readAdc+0x1a>
 396:	00 c0       	rjmp	.+0      	; 0x398 <readAdc+0x20>
 398:	2e e1       	ldi	r18, 0x1E	; 30
 39a:	30 e0       	ldi	r19, 0x00	; 0
	
	_delay_us(10);
	
	 int tmp = 0;
 39c:	80 e0       	ldi	r24, 0x00	; 0
 39e:	90 e0       	ldi	r25, 0x00	; 0
	
	for (int i=0; i<30; i++)
	{
		ADCSRA |= (1<<ADSC);
 3a0:	36 9a       	sbi	0x06, 6	; 6
		
		while((ADCSRA & (1<<ADSC)));
 3a2:	36 99       	sbic	0x06, 6	; 6
 3a4:	fe cf       	rjmp	.-4      	; 0x3a2 <readAdc+0x2a>
		
		tmp = tmp + ADC;
 3a6:	44 b1       	in	r20, 0x04	; 4
 3a8:	55 b1       	in	r21, 0x05	; 5
 3aa:	84 0f       	add	r24, r20
 3ac:	95 1f       	adc	r25, r21
 3ae:	21 50       	subi	r18, 0x01	; 1
 3b0:	31 09       	sbc	r19, r1
	
	_delay_us(10);
	
	 int tmp = 0;
	
	for (int i=0; i<30; i++)
 3b2:	21 15       	cp	r18, r1
 3b4:	31 05       	cpc	r19, r1
 3b6:	a1 f7       	brne	.-24     	; 0x3a0 <readAdc+0x28>
		tmp = tmp + ADC;
	} 
	
	
	
	return tmp/30;
 3b8:	6e e1       	ldi	r22, 0x1E	; 30
 3ba:	70 e0       	ldi	r23, 0x00	; 0
 3bc:	c2 d4       	rcall	.+2436   	; 0xd42 <__divmodhi4>
 3be:	cb 01       	movw	r24, r22
}
 3c0:	08 95       	ret

000003c2 <main>:
	return tmp/30;
}

int main(void)
{
	preset();
 3c2:	d2 df       	rcall	.-92     	; 0x368 <preset>
    while(1)
    {
		
        Lcd_clear();
 3c4:	fc d0       	rcall	.+504    	; 0x5be <Lcd_clear>
		Lcd_printf(0,0,FONT_1X,readAdc(0)*0.029325,1);
 3c6:	80 e0       	ldi	r24, 0x00	; 0
 3c8:	90 e0       	ldi	r25, 0x00	; 0
 3ca:	d6 df       	rcall	.-84     	; 0x378 <readAdc>
 3cc:	bc 01       	movw	r22, r24
 3ce:	88 27       	eor	r24, r24
 3d0:	77 fd       	sbrc	r23, 7
 3d2:	80 95       	com	r24
 3d4:	98 2f       	mov	r25, r24
 3d6:	c6 d3       	rcall	.+1932   	; 0xb64 <__floatsisf>
 3d8:	2b ef       	ldi	r18, 0xFB	; 251
 3da:	3a e3       	ldi	r19, 0x3A	; 58
 3dc:	40 ef       	ldi	r20, 0xF0	; 240
 3de:	5c e3       	ldi	r21, 0x3C	; 60
 3e0:	4d d4       	rcall	.+2202   	; 0xc7c <__mulsf3>
 3e2:	8b 01       	movw	r16, r22
 3e4:	9c 01       	movw	r18, r24
 3e6:	ee 24       	eor	r14, r14
 3e8:	e3 94       	inc	r14
 3ea:	f1 2c       	mov	r15, r1
 3ec:	41 e0       	ldi	r20, 0x01	; 1
 3ee:	60 e0       	ldi	r22, 0x00	; 0
 3f0:	80 e0       	ldi	r24, 0x00	; 0
 3f2:	9d d2       	rcall	.+1338   	; 0x92e <Lcd_printf>
		Lcd_printf(0,1,FONT_1X,(readAdc(1)*2.56*(3/2.56))/1023,1);
 3f4:	81 e0       	ldi	r24, 0x01	; 1
 3f6:	90 e0       	ldi	r25, 0x00	; 0
 3f8:	bf df       	rcall	.-130    	; 0x378 <readAdc>
 3fa:	bc 01       	movw	r22, r24
 3fc:	88 27       	eor	r24, r24
 3fe:	77 fd       	sbrc	r23, 7
 400:	80 95       	com	r24
 402:	98 2f       	mov	r25, r24
 404:	af d3       	rcall	.+1886   	; 0xb64 <__floatsisf>
 406:	2a e0       	ldi	r18, 0x0A	; 10
 408:	37 ed       	ldi	r19, 0xD7	; 215
 40a:	43 e2       	ldi	r20, 0x23	; 35
 40c:	50 e4       	ldi	r21, 0x40	; 64
 40e:	36 d4       	rcall	.+2156   	; 0xc7c <__mulsf3>
 410:	20 e0       	ldi	r18, 0x00	; 0
 412:	30 e0       	ldi	r19, 0x00	; 0
 414:	46 e9       	ldi	r20, 0x96	; 150
 416:	5f e3       	ldi	r21, 0x3F	; 63
 418:	31 d4       	rcall	.+2146   	; 0xc7c <__mulsf3>
 41a:	20 e0       	ldi	r18, 0x00	; 0
 41c:	30 ec       	ldi	r19, 0xC0	; 192
 41e:	4f e7       	ldi	r20, 0x7F	; 127
 420:	54 e4       	ldi	r21, 0x44	; 68
 422:	05 d3       	rcall	.+1546   	; 0xa2e <__divsf3>
 424:	8b 01       	movw	r16, r22
 426:	9c 01       	movw	r18, r24
 428:	41 e0       	ldi	r20, 0x01	; 1
 42a:	61 e0       	ldi	r22, 0x01	; 1
 42c:	80 e0       	ldi	r24, 0x00	; 0
 42e:	7f d2       	rcall	.+1278   	; 0x92e <Lcd_printf>
		Lcd_printf(0,2,FONT_1X,(((readAdc(2)*3.73*100)/1023)-273.15),1);
 430:	82 e0       	ldi	r24, 0x02	; 2
 432:	90 e0       	ldi	r25, 0x00	; 0
 434:	a1 df       	rcall	.-190    	; 0x378 <readAdc>
 436:	bc 01       	movw	r22, r24
 438:	88 27       	eor	r24, r24
 43a:	77 fd       	sbrc	r23, 7
 43c:	80 95       	com	r24
 43e:	98 2f       	mov	r25, r24
 440:	91 d3       	rcall	.+1826   	; 0xb64 <__floatsisf>
 442:	22 e5       	ldi	r18, 0x52	; 82
 444:	38 eb       	ldi	r19, 0xB8	; 184
 446:	4e e6       	ldi	r20, 0x6E	; 110
 448:	50 e4       	ldi	r21, 0x40	; 64
 44a:	18 d4       	rcall	.+2096   	; 0xc7c <__mulsf3>
 44c:	20 e0       	ldi	r18, 0x00	; 0
 44e:	30 e0       	ldi	r19, 0x00	; 0
 450:	48 ec       	ldi	r20, 0xC8	; 200
 452:	52 e4       	ldi	r21, 0x42	; 66
 454:	13 d4       	rcall	.+2086   	; 0xc7c <__mulsf3>
 456:	20 e0       	ldi	r18, 0x00	; 0
 458:	30 ec       	ldi	r19, 0xC0	; 192
 45a:	4f e7       	ldi	r20, 0x7F	; 127
 45c:	54 e4       	ldi	r21, 0x44	; 68
 45e:	e7 d2       	rcall	.+1486   	; 0xa2e <__divsf3>
 460:	23 e3       	ldi	r18, 0x33	; 51
 462:	33 e9       	ldi	r19, 0x93	; 147
 464:	48 e8       	ldi	r20, 0x88	; 136
 466:	53 e4       	ldi	r21, 0x43	; 67
 468:	7d d2       	rcall	.+1274   	; 0x964 <__subsf3>
 46a:	8b 01       	movw	r16, r22
 46c:	9c 01       	movw	r18, r24
 46e:	41 e0       	ldi	r20, 0x01	; 1
 470:	62 e0       	ldi	r22, 0x02	; 2
 472:	80 e0       	ldi	r24, 0x00	; 0
 474:	5c d2       	rcall	.+1208   	; 0x92e <Lcd_printf>
	    Lcd_update();
 476:	bb d0       	rcall	.+374    	; 0x5ee <Lcd_update>
	#else
		//round up by default
		__ticks_dc = (uint32_t)(ceil(fabs(__tmp)));
	#endif

	__builtin_avr_delay_cycles(__ticks_dc);
 478:	2f ef       	ldi	r18, 0xFF	; 255
 47a:	83 ed       	ldi	r24, 0xD3	; 211
 47c:	90 e3       	ldi	r25, 0x30	; 48
 47e:	21 50       	subi	r18, 0x01	; 1
 480:	80 40       	sbci	r24, 0x00	; 0
 482:	90 40       	sbci	r25, 0x00	; 0
 484:	e1 f7       	brne	.-8      	; 0x47e <__stack+0x1f>
 486:	00 c0       	rjmp	.+0      	; 0x488 <__stack+0x29>
 488:	00 00       	nop
 48a:	9c cf       	rjmp	.-200    	; 0x3c4 <main+0x2>

0000048c <LcdSend>:
 * Возвращаемое значение :  Нет
 */
static void LcdSend ( byte data, LcdCmdData cd )
{
    // Включаем контроллер дисплея (низкий уровень активный)
    LCD_PORT &= ~( _BV( LCD_CE_PIN ) );
 48c:	c2 98       	cbi	0x18, 2	; 24

    if ( cd == LCD_DATA )
 48e:	61 30       	cpi	r22, 0x01	; 1
 490:	11 f4       	brne	.+4      	; 0x496 <LcdSend+0xa>
    {
        LCD_PORT |= _BV( LCD_DC_PIN );
 492:	c1 9a       	sbi	0x18, 1	; 24
 494:	01 c0       	rjmp	.+2      	; 0x498 <LcdSend+0xc>
    }
    else
    {
        LCD_PORT &= ~( _BV( LCD_DC_PIN ) );
 496:	c1 98       	cbi	0x18, 1	; 24
    }

    // Отправка данных в контроллер дисплея
    SPDR = data;
 498:	8f b9       	out	0x0f, r24	; 15

    // Ждем окончания передачи
    while ( (SPSR & 0x80) != 0x80 );
 49a:	77 9b       	sbis	0x0e, 7	; 14
 49c:	fe cf       	rjmp	.-4      	; 0x49a <LcdSend+0xe>

    // Отключаем контроллер дисплея
    LCD_PORT |= _BV( LCD_CE_PIN );
 49e:	c2 9a       	sbi	0x18, 2	; 24
 4a0:	08 95       	ret

000004a2 <gftoa>:
 * Описание              :  Переводит float в string
 * Аргумент(ы)           :  n - число, power -  число знаков после запятой
 * Возвращаемое значение :  string
 */

char *gftoa(float f, int dec) {
 4a2:	cf 92       	push	r12
 4a4:	df 92       	push	r13
 4a6:	ef 92       	push	r14
 4a8:	ff 92       	push	r15
 4aa:	0f 93       	push	r16
 4ac:	1f 93       	push	r17
 4ae:	cf 93       	push	r28
 4b0:	df 93       	push	r29
 4b2:	6b 01       	movw	r12, r22
 4b4:	7c 01       	movw	r14, r24
 4b6:	ea 01       	movw	r28, r20
#include "n5110.h"

//Работа с float
int gpow(int n, int power) {
	int res = 1;
	while(power--) res *= n;
 4b8:	ca 01       	movw	r24, r20
 4ba:	01 97       	sbiw	r24, 0x01	; 1
 4bc:	20 97       	sbiw	r28, 0x00	; 0
 4be:	81 f0       	breq	.+32     	; 0x4e0 <gftoa+0x3e>
#include <avr/interrupt.h>
#include "n5110.h"

//Работа с float
int gpow(int n, int power) {
	int res = 1;
 4c0:	61 e0       	ldi	r22, 0x01	; 1
 4c2:	70 e0       	ldi	r23, 0x00	; 0
	while(power--) res *= n;
 4c4:	9b 01       	movw	r18, r22
 4c6:	22 0f       	add	r18, r18
 4c8:	33 1f       	adc	r19, r19
 4ca:	66 0f       	add	r22, r22
 4cc:	77 1f       	adc	r23, r23
 4ce:	66 0f       	add	r22, r22
 4d0:	77 1f       	adc	r23, r23
 4d2:	66 0f       	add	r22, r22
 4d4:	77 1f       	adc	r23, r23
 4d6:	62 0f       	add	r22, r18
 4d8:	73 1f       	adc	r23, r19
 4da:	01 97       	sbiw	r24, 0x01	; 1
 4dc:	98 f7       	brcc	.-26     	; 0x4c4 <gftoa+0x22>
 4de:	02 c0       	rjmp	.+4      	; 0x4e4 <gftoa+0x42>
#include <avr/interrupt.h>
#include "n5110.h"

//Работа с float
int gpow(int n, int power) {
	int res = 1;
 4e0:	61 e0       	ldi	r22, 0x01	; 1
 4e2:	70 e0       	ldi	r23, 0x00	; 0
 */

char *gftoa(float f, int dec) {
	static char buf[16];
	char *p = buf + 15;
	int i = f * gpow(10, dec);
 4e4:	88 27       	eor	r24, r24
 4e6:	77 fd       	sbrc	r23, 7
 4e8:	80 95       	com	r24
 4ea:	98 2f       	mov	r25, r24
 4ec:	3b d3       	rcall	.+1654   	; 0xb64 <__floatsisf>
 4ee:	a7 01       	movw	r20, r14
 4f0:	96 01       	movw	r18, r12
 4f2:	c4 d3       	rcall	.+1928   	; 0xc7c <__mulsf3>
 4f4:	04 d3       	rcall	.+1544   	; 0xafe <__fixsfsi>
	int sign = i < 0 ? -1 : 1;
 4f6:	77 23       	and	r23, r23
 4f8:	1c f4       	brge	.+6      	; 0x500 <gftoa+0x5e>
 4fa:	0f ef       	ldi	r16, 0xFF	; 255
 4fc:	1f ef       	ldi	r17, 0xFF	; 255
 4fe:	02 c0       	rjmp	.+4      	; 0x504 <gftoa+0x62>
 500:	01 e0       	ldi	r16, 0x01	; 1
 502:	10 e0       	ldi	r17, 0x00	; 0
	i *= sign;
 504:	06 9f       	mul	r16, r22
 506:	90 01       	movw	r18, r0
 508:	07 9f       	mul	r16, r23
 50a:	30 0d       	add	r19, r0
 50c:	16 9f       	mul	r17, r22
 50e:	30 0d       	add	r19, r0
 510:	11 24       	eor	r1, r1
 * Возвращаемое значение :  string
 */

char *gftoa(float f, int dec) {
	static char buf[16];
	char *p = buf + 15;
 512:	0f 2e       	mov	r0, r31
 514:	ff e6       	ldi	r31, 0x6F	; 111
 516:	ef 2e       	mov	r14, r31
 518:	f0 e0       	ldi	r31, 0x00	; 0
 51a:	ff 2e       	mov	r15, r31
 51c:	f0 2d       	mov	r31, r0
	int i = f * gpow(10, dec);
	int sign = i < 0 ? -1 : 1;
	i *= sign;
	do {
		*--p = '0' + (i % 10);
 51e:	0f 2e       	mov	r0, r31
 520:	fa e0       	ldi	r31, 0x0A	; 10
 522:	cf 2e       	mov	r12, r31
 524:	d1 2c       	mov	r13, r1
 526:	f0 2d       	mov	r31, r0
		i /= 10;
		if (--dec == 0) *--p = '.';
 528:	4e e2       	ldi	r20, 0x2E	; 46
 52a:	02 c0       	rjmp	.+4      	; 0x530 <gftoa+0x8e>
 52c:	ec 01       	movw	r28, r24

char *gftoa(float f, int dec) {
	static char buf[16];
	char *p = buf + 15;
	int i = f * gpow(10, dec);
	int sign = i < 0 ? -1 : 1;
 52e:	7f 01       	movw	r14, r30
	i *= sign;
	do {
		*--p = '0' + (i % 10);
 530:	f7 01       	movw	r30, r14
 532:	c9 01       	movw	r24, r18
 534:	b6 01       	movw	r22, r12
 536:	05 d4       	rcall	.+2058   	; 0xd42 <__divmodhi4>
 538:	80 5d       	subi	r24, 0xD0	; 208
 53a:	82 93       	st	-Z, r24
		i /= 10;
 53c:	26 2f       	mov	r18, r22
 53e:	37 2f       	mov	r19, r23
		if (--dec == 0) *--p = '.';
 540:	ce 01       	movw	r24, r28
 542:	01 97       	sbiw	r24, 0x01	; 1
 544:	00 97       	sbiw	r24, 0x00	; 0
 546:	39 f4       	brne	.+14     	; 0x556 <gftoa+0xb4>
 548:	f7 01       	movw	r30, r14
 54a:	32 97       	sbiw	r30, 0x02	; 2
 54c:	40 83       	st	Z, r20
	}
	while (i != 0);
 54e:	21 15       	cp	r18, r1
 550:	31 05       	cpc	r19, r1
 552:	61 f7       	brne	.-40     	; 0x52c <gftoa+0x8a>
 554:	21 c0       	rjmp	.+66     	; 0x598 <gftoa+0xf6>
 556:	21 15       	cp	r18, r1
 558:	31 05       	cpc	r19, r1
 55a:	41 f7       	brne	.-48     	; 0x52c <gftoa+0x8a>
	char *p = buf + 15;
	int i = f * gpow(10, dec);
	int sign = i < 0 ? -1 : 1;
	i *= sign;
	do {
		*--p = '0' + (i % 10);
 55c:	af 01       	movw	r20, r30
		i /= 10;
		if (--dec == 0) *--p = '.';
	}
	while (i != 0);

	if (dec > 0) {
 55e:	18 16       	cp	r1, r24
 560:	19 06       	cpc	r1, r25
 562:	d4 f4       	brge	.+52     	; 0x598 <gftoa+0xf6>
		while (dec-- > 0)
 564:	be 01       	movw	r22, r28
 566:	62 50       	subi	r22, 0x02	; 2
 568:	71 09       	sbc	r23, r1
 56a:	9f 01       	movw	r18, r30
		*--p = '0';
 56c:	a0 e3       	ldi	r26, 0x30	; 48
 56e:	a2 93       	st	-Z, r26
 570:	cf 01       	movw	r24, r30
 572:	01 97       	sbiw	r24, 0x01	; 1
 574:	8c 0f       	add	r24, r28
 576:	9d 1f       	adc	r25, r29
 578:	82 1b       	sub	r24, r18
 57a:	93 0b       	sbc	r25, r19
		if (--dec == 0) *--p = '.';
	}
	while (i != 0);

	if (dec > 0) {
		while (dec-- > 0)
 57c:	18 16       	cp	r1, r24
 57e:	19 06       	cpc	r1, r25
 580:	b4 f3       	brlt	.-20     	; 0x56e <gftoa+0xcc>
 582:	fb 01       	movw	r30, r22
 584:	ff 23       	and	r31, r31
 586:	14 f4       	brge	.+4      	; 0x58c <gftoa+0xea>
 588:	e0 e0       	ldi	r30, 0x00	; 0
 58a:	f0 e0       	ldi	r31, 0x00	; 0
 58c:	e0 95       	com	r30
 58e:	f0 95       	com	r31
		*--p = '0';
		*--p = '.';
 590:	e4 0f       	add	r30, r20
 592:	f5 1f       	adc	r31, r21
 594:	8e e2       	ldi	r24, 0x2E	; 46
 596:	82 93       	st	-Z, r24
	}
	
	if (*p == '.') *--p = '0';
 598:	80 81       	ld	r24, Z
 59a:	8e 32       	cpi	r24, 0x2E	; 46
 59c:	11 f4       	brne	.+4      	; 0x5a2 <gftoa+0x100>
 59e:	80 e3       	ldi	r24, 0x30	; 48
 5a0:	82 93       	st	-Z, r24

	if (sign < 0) *--p = '-';
 5a2:	11 23       	and	r17, r17
 5a4:	14 f4       	brge	.+4      	; 0x5aa <gftoa+0x108>
 5a6:	8d e2       	ldi	r24, 0x2D	; 45
 5a8:	82 93       	st	-Z, r24

	return p;
}
 5aa:	cf 01       	movw	r24, r30
 5ac:	df 91       	pop	r29
 5ae:	cf 91       	pop	r28
 5b0:	1f 91       	pop	r17
 5b2:	0f 91       	pop	r16
 5b4:	ff 90       	pop	r15
 5b6:	ef 90       	pop	r14
 5b8:	df 90       	pop	r13
 5ba:	cf 90       	pop	r12
 5bc:	08 95       	ret

000005be <Lcd_clear>:
 * Возвращаемое значение :  Нет
 */
void Lcd_clear ( void )
{

    memset( LcdCache, 0x00, LCD_CACHE_SIZE );
 5be:	88 ef       	ldi	r24, 0xF8	; 248
 5c0:	91 e0       	ldi	r25, 0x01	; 1
 5c2:	e7 e7       	ldi	r30, 0x77	; 119
 5c4:	f0 e0       	ldi	r31, 0x00	; 0
 5c6:	df 01       	movw	r26, r30
 5c8:	9c 01       	movw	r18, r24
 5ca:	1d 92       	st	X+, r1
 5cc:	21 50       	subi	r18, 0x01	; 1
 5ce:	30 40       	sbci	r19, 0x00	; 0
 5d0:	e1 f7       	brne	.-8      	; 0x5ca <Lcd_clear+0xc>
    
    // Сброс указателей границ в максимальное значение
    LoWaterMark = 0;
 5d2:	10 92 76 00 	sts	0x0076, r1
 5d6:	10 92 75 00 	sts	0x0075, r1
    HiWaterMark = LCD_CACHE_SIZE - 1;
 5da:	87 ef       	ldi	r24, 0xF7	; 247
 5dc:	91 e0       	ldi	r25, 0x01	; 1
 5de:	90 93 74 00 	sts	0x0074, r25
 5e2:	80 93 73 00 	sts	0x0073, r24

    // Установка флага изменений кэша
    UpdateLcd = TRUE;
 5e6:	81 e0       	ldi	r24, 0x01	; 1
 5e8:	80 93 70 00 	sts	0x0070, r24
 5ec:	08 95       	ret

000005ee <Lcd_update>:
 * Описание              :  Копирует кэш в ОЗУ дисплея
 * Аргумент(ы)           :  Нет
 * Возвращаемое значение :  Нет
 */
void Lcd_update (void)
{
 5ee:	0f 93       	push	r16
 5f0:	1f 93       	push	r17
 5f2:	cf 93       	push	r28
 5f4:	df 93       	push	r29
    int i;

    if ( LoWaterMark < 0 )
 5f6:	80 91 75 00 	lds	r24, 0x0075
 5fa:	90 91 76 00 	lds	r25, 0x0076
 5fe:	99 23       	and	r25, r25
 600:	2c f4       	brge	.+10     	; 0x60c <Lcd_update+0x1e>
        LoWaterMark = 0;
 602:	10 92 76 00 	sts	0x0076, r1
 606:	10 92 75 00 	sts	0x0075, r1
 60a:	09 c0       	rjmp	.+18     	; 0x61e <Lcd_update+0x30>
    else if ( LoWaterMark >= LCD_CACHE_SIZE )
 60c:	88 3f       	cpi	r24, 0xF8	; 248
 60e:	91 40       	sbci	r25, 0x01	; 1
 610:	34 f0       	brlt	.+12     	; 0x61e <Lcd_update+0x30>
        LoWaterMark = LCD_CACHE_SIZE - 1;
 612:	87 ef       	ldi	r24, 0xF7	; 247
 614:	91 e0       	ldi	r25, 0x01	; 1
 616:	90 93 76 00 	sts	0x0076, r25
 61a:	80 93 75 00 	sts	0x0075, r24

    if ( HiWaterMark < 0 )
 61e:	80 91 73 00 	lds	r24, 0x0073
 622:	90 91 74 00 	lds	r25, 0x0074
 626:	99 23       	and	r25, r25
 628:	2c f4       	brge	.+10     	; 0x634 <Lcd_update+0x46>
        HiWaterMark = 0;
 62a:	10 92 74 00 	sts	0x0074, r1
 62e:	10 92 73 00 	sts	0x0073, r1
 632:	09 c0       	rjmp	.+18     	; 0x646 <Lcd_update+0x58>
    else if ( HiWaterMark >= LCD_CACHE_SIZE )
 634:	88 3f       	cpi	r24, 0xF8	; 248
 636:	91 40       	sbci	r25, 0x01	; 1
 638:	34 f0       	brlt	.+12     	; 0x646 <Lcd_update+0x58>
        HiWaterMark = LCD_CACHE_SIZE - 1;
 63a:	87 ef       	ldi	r24, 0xF7	; 247
 63c:	91 e0       	ldi	r25, 0x01	; 1
 63e:	90 93 74 00 	sts	0x0074, r25
 642:	80 93 73 00 	sts	0x0073, r24
        LcdSend( 0x20, LCD_CMD );    // Включаем стандартный набор команд и горизонтальную адресацию

    #else  // Алгоритм для оригинального дисплея

        // Устанавливаем начальный адрес в соответствии к LoWaterMark
        LcdSend( 0x80 | ( LoWaterMark % LCD_X_RES ), LCD_CMD );
 646:	c0 91 75 00 	lds	r28, 0x0075
 64a:	d0 91 76 00 	lds	r29, 0x0076
 64e:	ce 01       	movw	r24, r28
 650:	64 e5       	ldi	r22, 0x54	; 84
 652:	70 e0       	ldi	r23, 0x00	; 0
 654:	76 d3       	rcall	.+1772   	; 0xd42 <__divmodhi4>
 656:	16 2f       	mov	r17, r22
 658:	60 e0       	ldi	r22, 0x00	; 0
 65a:	80 68       	ori	r24, 0x80	; 128
 65c:	17 df       	rcall	.-466    	; 0x48c <LcdSend>
        LcdSend( 0x40 | ( LoWaterMark / LCD_X_RES ), LCD_CMD );
 65e:	60 e0       	ldi	r22, 0x00	; 0
 660:	81 2f       	mov	r24, r17
 662:	80 64       	ori	r24, 0x40	; 64
 664:	13 df       	rcall	.-474    	; 0x48c <LcdSend>

        // Обновляем необходимую часть буфера дисплея
        for ( i = LoWaterMark; i <= HiWaterMark; i++ )
 666:	80 91 73 00 	lds	r24, 0x0073
 66a:	90 91 74 00 	lds	r25, 0x0074
 66e:	8c 17       	cp	r24, r28
 670:	9d 07       	cpc	r25, r29
 672:	84 f0       	brlt	.+32     	; 0x694 <Lcd_update+0xa6>
 674:	8e 01       	movw	r16, r28
 676:	09 58       	subi	r16, 0x89	; 137
 678:	1f 4f       	sbci	r17, 0xFF	; 255
        {
            // Для оригинального дисплея не нужно следить за адресом в буфере,
            // можно просто последовательно выводить данные
            LcdSend( LcdCache[i], LCD_DATA );
 67a:	61 e0       	ldi	r22, 0x01	; 1
 67c:	f8 01       	movw	r30, r16
 67e:	81 91       	ld	r24, Z+
 680:	8f 01       	movw	r16, r30
 682:	04 df       	rcall	.-504    	; 0x48c <LcdSend>
        // Устанавливаем начальный адрес в соответствии к LoWaterMark
        LcdSend( 0x80 | ( LoWaterMark % LCD_X_RES ), LCD_CMD );
        LcdSend( 0x40 | ( LoWaterMark / LCD_X_RES ), LCD_CMD );

        // Обновляем необходимую часть буфера дисплея
        for ( i = LoWaterMark; i <= HiWaterMark; i++ )
 684:	21 96       	adiw	r28, 0x01	; 1
 686:	80 91 73 00 	lds	r24, 0x0073
 68a:	90 91 74 00 	lds	r25, 0x0074
 68e:	8c 17       	cp	r24, r28
 690:	9d 07       	cpc	r25, r29
 692:	9c f7       	brge	.-26     	; 0x67a <Lcd_update+0x8c>
        }

    #endif

    // Сброс указателей границ в пустоту
    LoWaterMark = LCD_CACHE_SIZE - 1;
 694:	87 ef       	ldi	r24, 0xF7	; 247
 696:	91 e0       	ldi	r25, 0x01	; 1
 698:	90 93 76 00 	sts	0x0076, r25
 69c:	80 93 75 00 	sts	0x0075, r24
    HiWaterMark = 0;
 6a0:	10 92 74 00 	sts	0x0074, r1
 6a4:	10 92 73 00 	sts	0x0073, r1

    // Сброс флага изменений кэша
    UpdateLcd = FALSE;
 6a8:	10 92 70 00 	sts	0x0070, r1
}
 6ac:	df 91       	pop	r29
 6ae:	cf 91       	pop	r28
 6b0:	1f 91       	pop	r17
 6b2:	0f 91       	pop	r16
 6b4:	08 95       	ret

000006b6 <Lcd_init>:
 * Возвращаемое значение :  Нет
 */
void Lcd_init ( void )
{
    // Pull-up на вывод подключенный к reset дисплея
    LCD_PORT |= _BV ( LCD_RST_PIN );
 6b6:	c4 9a       	sbi	0x18, 4	; 24

    // Устанавливаем нужные биты порта на выход
    LCD_DDR |= _BV( LCD_RST_PIN ) | _BV( LCD_DC_PIN ) | _BV( LCD_CE_PIN ) | _BV( SPI_MOSI_PIN ) | _BV( SPI_CLK_PIN );
 6b8:	87 b3       	in	r24, 0x17	; 23
 6ba:	8e 63       	ori	r24, 0x3E	; 62
 6bc:	87 bb       	out	0x17, r24	; 23

    // Некалиброванная задержка
    Delay();

    // Дергаем reset
    LCD_PORT &= ~( _BV( LCD_RST_PIN ) );
 6be:	c4 98       	cbi	0x18, 4	; 24
    Delay();
    LCD_PORT |= _BV ( LCD_RST_PIN );
 6c0:	c4 9a       	sbi	0x18, 4	; 24

    // Активируем SPI:
    // без прерываний, старший бит первый, режим мастера, CPOL->0, CPHA->0, Clk/4
    SPCR = 0x50;
 6c2:	80 e5       	ldi	r24, 0x50	; 80
 6c4:	8d b9       	out	0x0d, r24	; 13

    // Отключаем LCD контроллер - высокий уровень на SCE
    LCD_PORT |= _BV( LCD_CE_PIN );
 6c6:	c2 9a       	sbi	0x18, 2	; 24

    // Отправляем команды дисплею
    LcdSend( 0x21, LCD_CMD ); // Включаем расширенный набор команд (LCD Extended Commands)
 6c8:	60 e0       	ldi	r22, 0x00	; 0
 6ca:	81 e2       	ldi	r24, 0x21	; 33
 6cc:	df de       	rcall	.-578    	; 0x48c <LcdSend>
    LcdSend( 0xC8, LCD_CMD ); // Установка контрастности (LCD Vop)
 6ce:	60 e0       	ldi	r22, 0x00	; 0
 6d0:	88 ec       	ldi	r24, 0xC8	; 200
 6d2:	dc de       	rcall	.-584    	; 0x48c <LcdSend>
    LcdSend( 0x06, LCD_CMD ); // Установка температурного коэффициента (Temp coefficent)
 6d4:	60 e0       	ldi	r22, 0x00	; 0
 6d6:	86 e0       	ldi	r24, 0x06	; 6
 6d8:	d9 de       	rcall	.-590    	; 0x48c <LcdSend>
    LcdSend( 0x13, LCD_CMD ); // Настройка питания (LCD bias mode 1:48)
 6da:	60 e0       	ldi	r22, 0x00	; 0
 6dc:	83 e1       	ldi	r24, 0x13	; 19
 6de:	d6 de       	rcall	.-596    	; 0x48c <LcdSend>
    LcdSend( 0x20, LCD_CMD ); // Включаем стандартный набор команд и горизонтальную адресацию (LCD Standard Commands,Horizontal addressing mode)
 6e0:	60 e0       	ldi	r22, 0x00	; 0
 6e2:	80 e2       	ldi	r24, 0x20	; 32
 6e4:	d3 de       	rcall	.-602    	; 0x48c <LcdSend>
    LcdSend( 0x0C, LCD_CMD ); // Нормальный режим (LCD in normal mode)
 6e6:	60 e0       	ldi	r22, 0x00	; 0
 6e8:	8c e0       	ldi	r24, 0x0C	; 12
 6ea:	d0 de       	rcall	.-608    	; 0x48c <LcdSend>

    // Первичная очистка дисплея
    Lcd_clear();
 6ec:	68 df       	rcall	.-304    	; 0x5be <Lcd_clear>
    Lcd_update();
 6ee:	7f df       	rcall	.-258    	; 0x5ee <Lcd_update>
 6f0:	08 95       	ret

000006f2 <LcdGotoXY>:
 * Возвращаемое значение :  смотри возвращаемое значение в n5110.h
 */
byte LcdGotoXY ( byte x, byte y )
{
    // Проверка границ
    if( x > 13 || y > 5 ) return OUT_OF_BORDER;
 6f2:	8e 30       	cpi	r24, 0x0E	; 14
 6f4:	a8 f4       	brcc	.+42     	; 0x720 <LcdGotoXY+0x2e>
 6f6:	66 30       	cpi	r22, 0x06	; 6
 6f8:	a8 f4       	brcc	.+42     	; 0x724 <LcdGotoXY+0x32>

    //  Вычисление указателя. Определен как адрес в пределах 504 байт
    LcdCacheIdx = x * 6 + y * 84;
 6fa:	90 e0       	ldi	r25, 0x00	; 0
 6fc:	9c 01       	movw	r18, r24
 6fe:	22 0f       	add	r18, r18
 700:	33 1f       	adc	r19, r19
 702:	82 0f       	add	r24, r18
 704:	93 1f       	adc	r25, r19
 706:	88 0f       	add	r24, r24
 708:	99 1f       	adc	r25, r25
 70a:	24 e5       	ldi	r18, 0x54	; 84
 70c:	62 9f       	mul	r22, r18
 70e:	80 0d       	add	r24, r0
 710:	91 1d       	adc	r25, r1
 712:	11 24       	eor	r1, r1
 714:	90 93 72 00 	sts	0x0072, r25
 718:	80 93 71 00 	sts	0x0071, r24
    return OK;
 71c:	80 e0       	ldi	r24, 0x00	; 0
 71e:	08 95       	ret
 * Возвращаемое значение :  смотри возвращаемое значение в n5110.h
 */
byte LcdGotoXY ( byte x, byte y )
{
    // Проверка границ
    if( x > 13 || y > 5 ) return OUT_OF_BORDER;
 720:	81 e0       	ldi	r24, 0x01	; 1
 722:	08 95       	ret
 724:	81 e0       	ldi	r24, 0x01	; 1

    //  Вычисление указателя. Определен как адрес в пределах 504 байт
    LcdCacheIdx = x * 6 + y * 84;
    return OK;
}
 726:	08 95       	ret

00000728 <LcdChr>:
 * Аргумент(ы)           :  size -> размер шрифта. Смотри enum в n5110.h
 *                          ch   -> символ для вывода
 * Возвращаемое значение :  смотри возвращаемое значение в n5110lcd.h
 */
byte LcdChr ( LcdFontSize size, byte ch )
{
 728:	1f 93       	push	r17
 72a:	cf 93       	push	r28
 72c:	df 93       	push	r29
    byte i, c;
    byte b1, b2;
    int  tmpIdx;

    if ( LcdCacheIdx < LoWaterMark )
 72e:	20 91 71 00 	lds	r18, 0x0071
 732:	30 91 72 00 	lds	r19, 0x0072
 736:	40 91 75 00 	lds	r20, 0x0075
 73a:	50 91 76 00 	lds	r21, 0x0076
 73e:	24 17       	cp	r18, r20
 740:	35 07       	cpc	r19, r21
 742:	24 f4       	brge	.+8      	; 0x74c <LcdChr+0x24>
    {
        // Обновляем нижнюю границу
        LoWaterMark = LcdCacheIdx;
 744:	30 93 76 00 	sts	0x0076, r19
 748:	20 93 75 00 	sts	0x0075, r18
    }

    if ( (ch >= 0x20) && (ch <= 0x7F) )
 74c:	e0 ee       	ldi	r30, 0xE0	; 224
 74e:	e6 0f       	add	r30, r22
 750:	e0 36       	cpi	r30, 0x60	; 96
 752:	30 f0       	brcs	.+12     	; 0x760 <LcdChr+0x38>
    {
        // Смещение в таблице для символов ASCII[0x20-0x7F]
        ch -= 32;
    }
    else if ( ch >= 0xC0 )
 754:	60 3c       	cpi	r22, 0xC0	; 192
 756:	18 f0       	brcs	.+6      	; 0x75e <LcdChr+0x36>
    {
        // Смещение в таблице для символов CP1251[0xC0-0xFF]
        ch -= 96;
 758:	e0 ea       	ldi	r30, 0xA0	; 160
 75a:	e6 0f       	add	r30, r22
 75c:	01 c0       	rjmp	.+2      	; 0x760 <LcdChr+0x38>
    }
    else
    {
        // Остальные игнорируем (их просто нет в таблице для экономии памяти)
        ch = 95;
 75e:	ef e5       	ldi	r30, 0x5F	; 95
    }

    if ( size == FONT_1X )
 760:	81 30       	cpi	r24, 0x01	; 1
 762:	49 f5       	brne	.+82     	; 0x7b6 <LcdChr+0x8e>
 764:	60 91 71 00 	lds	r22, 0x0071
 768:	70 91 72 00 	lds	r23, 0x0072
 76c:	cb 01       	movw	r24, r22
 76e:	ab 01       	movw	r20, r22
 770:	4b 5f       	subi	r20, 0xFB	; 251
 772:	5f 4f       	sbci	r21, 0xFF	; 255
 774:	2e 2f       	mov	r18, r30
 776:	30 e0       	ldi	r19, 0x00	; 0
 778:	f9 01       	movw	r30, r18
 77a:	ee 0f       	add	r30, r30
 77c:	ff 1f       	adc	r31, r31
 77e:	ee 0f       	add	r30, r30
 780:	ff 1f       	adc	r31, r31
 782:	2e 0f       	add	r18, r30
 784:	3f 1f       	adc	r19, r31
 786:	26 1b       	sub	r18, r22
 788:	37 0b       	sbc	r19, r23
 78a:	2a 5d       	subi	r18, 0xDA	; 218
 78c:	3f 4f       	sbci	r19, 0xFF	; 255
 78e:	f9 01       	movw	r30, r18
 790:	e8 0f       	add	r30, r24
 792:	f9 1f       	adc	r31, r25
    {
        for ( i = 0; i < 5; i++ )
        {
            // Копируем вид символа из таблицы в кэш
            LcdCache[LcdCacheIdx++] = pgm_read_byte( &(FontLookup[ch][i]) ) << 1;
 794:	e4 91       	lpm	r30, Z
 796:	dc 01       	movw	r26, r24
 798:	a9 58       	subi	r26, 0x89	; 137
 79a:	bf 4f       	sbci	r27, 0xFF	; 255
 79c:	ee 0f       	add	r30, r30
 79e:	ec 93       	st	X, r30
 7a0:	01 96       	adiw	r24, 0x01	; 1
        ch = 95;
    }

    if ( size == FONT_1X )
    {
        for ( i = 0; i < 5; i++ )
 7a2:	84 17       	cp	r24, r20
 7a4:	95 07       	cpc	r25, r21
 7a6:	99 f7       	brne	.-26     	; 0x78e <LcdChr+0x66>
 7a8:	6b 5f       	subi	r22, 0xFB	; 251
 7aa:	7f 4f       	sbci	r23, 0xFF	; 255
 7ac:	70 93 72 00 	sts	0x0072, r23
 7b0:	60 93 71 00 	sts	0x0071, r22
 7b4:	72 c0       	rjmp	.+228    	; 0x89a <LcdChr+0x172>
        {
            // Копируем вид символа из таблицы в кэш
            LcdCache[LcdCacheIdx++] = pgm_read_byte( &(FontLookup[ch][i]) ) << 1;
        }
    }
    else if ( size == FONT_2X )
 7b6:	82 30       	cpi	r24, 0x02	; 2
 7b8:	09 f0       	breq	.+2      	; 0x7bc <LcdChr+0x94>
 7ba:	6f c0       	rjmp	.+222    	; 0x89a <LcdChr+0x172>
    {
        tmpIdx = LcdCacheIdx - 84;
 7bc:	c9 01       	movw	r24, r18
 7be:	84 55       	subi	r24, 0x54	; 84
 7c0:	91 09       	sbc	r25, r1

        if ( tmpIdx < LoWaterMark )
 7c2:	40 91 75 00 	lds	r20, 0x0075
 7c6:	50 91 76 00 	lds	r21, 0x0076
 7ca:	84 17       	cp	r24, r20
 7cc:	95 07       	cpc	r25, r21
 7ce:	24 f4       	brge	.+8      	; 0x7d8 <LcdChr+0xb0>
        {
            LoWaterMark = tmpIdx;
 7d0:	90 93 76 00 	sts	0x0076, r25
 7d4:	80 93 75 00 	sts	0x0075, r24
        }

        if ( tmpIdx < 0 ) return OUT_OF_BORDER;
 7d8:	99 23       	and	r25, r25
 7da:	0c f4       	brge	.+2      	; 0x7de <LcdChr+0xb6>
 7dc:	82 c0       	rjmp	.+260    	; 0x8e2 <LcdChr+0x1ba>
 7de:	8e 2f       	mov	r24, r30
 7e0:	90 e0       	ldi	r25, 0x00	; 0
 7e2:	fc 01       	movw	r30, r24
 7e4:	ee 0f       	add	r30, r30
 7e6:	ff 1f       	adc	r31, r31
 7e8:	ee 0f       	add	r30, r30
 7ea:	ff 1f       	adc	r31, r31
 7ec:	e8 0f       	add	r30, r24
 7ee:	f9 1f       	adc	r31, r25
 7f0:	ea 5d       	subi	r30, 0xDA	; 218
 7f2:	ff 4f       	sbci	r31, 0xFF	; 255
 7f4:	d9 01       	movw	r26, r18
 7f6:	ac 5d       	subi	r26, 0xDC	; 220
 7f8:	bf 4f       	sbci	r27, 0xFF	; 255
 7fa:	c9 01       	movw	r24, r18
 7fc:	82 5d       	subi	r24, 0xD2	; 210
 7fe:	9f 4f       	sbci	r25, 0xFF	; 255
            // Увеличиваем картинку
            // Первую часть
            b1 =  (c & 0x01) * 3;
            b1 |= (c & 0x02) * 6;
            b1 |= (c & 0x04) * 12;
            b1 |= (c & 0x08) * 24;
 800:	18 e1       	ldi	r17, 0x18	; 24
        if ( tmpIdx < 0 ) return OUT_OF_BORDER;

        for ( i = 0; i < 5; i++ )
        {
            // Копируем вид символа из таблицы у временную переменную
            c = pgm_read_byte(&(FontLookup[ch][i])) << 1;
 802:	44 91       	lpm	r20, Z
 804:	44 0f       	add	r20, r20
            // Увеличиваем картинку
            // Первую часть
            b1 =  (c & 0x01) * 3;
            b1 |= (c & 0x02) * 6;
            b1 |= (c & 0x04) * 12;
 806:	54 2f       	mov	r21, r20
 808:	54 70       	andi	r21, 0x04	; 4
 80a:	65 2f       	mov	r22, r21
 80c:	66 0f       	add	r22, r22
 80e:	56 0f       	add	r21, r22
 810:	55 0f       	add	r21, r21
 812:	55 0f       	add	r21, r21
            // Копируем вид символа из таблицы у временную переменную
            c = pgm_read_byte(&(FontLookup[ch][i])) << 1;
            // Увеличиваем картинку
            // Первую часть
            b1 =  (c & 0x01) * 3;
            b1 |= (c & 0x02) * 6;
 814:	64 2f       	mov	r22, r20
 816:	62 70       	andi	r22, 0x02	; 2
 818:	76 2f       	mov	r23, r22
 81a:	77 0f       	add	r23, r23
 81c:	67 0f       	add	r22, r23
 81e:	66 0f       	add	r22, r22
            b1 |= (c & 0x04) * 12;
 820:	56 2b       	or	r21, r22
            b1 |= (c & 0x08) * 24;
 822:	74 2f       	mov	r23, r20
 824:	78 70       	andi	r23, 0x08	; 8
 826:	71 9f       	mul	r23, r17
 828:	70 2d       	mov	r23, r0
 82a:	11 24       	eor	r1, r1
 82c:	57 2b       	or	r21, r23

            c >>= 4;
 82e:	42 95       	swap	r20
 830:	4f 70       	andi	r20, 0x0F	; 15
            // Вторую часть
            b2 =  (c & 0x01) * 3;
 832:	64 2f       	mov	r22, r20
 834:	61 70       	andi	r22, 0x01	; 1
 836:	76 2f       	mov	r23, r22
 838:	77 0f       	add	r23, r23
 83a:	67 0f       	add	r22, r23
            b2 |= (c & 0x02) * 6;
 83c:	74 2f       	mov	r23, r20
 83e:	72 70       	andi	r23, 0x02	; 2
 840:	c7 2f       	mov	r28, r23
 842:	cc 0f       	add	r28, r28
 844:	7c 0f       	add	r23, r28
 846:	77 0f       	add	r23, r23
 848:	76 2b       	or	r23, r22
            b2 |= (c & 0x04) * 12;
 84a:	64 2f       	mov	r22, r20
 84c:	64 70       	andi	r22, 0x04	; 4
 84e:	c6 2f       	mov	r28, r22
 850:	cc 0f       	add	r28, r28
 852:	6c 0f       	add	r22, r28
 854:	c6 2f       	mov	r28, r22
 856:	cc 0f       	add	r28, r28
 858:	cc 0f       	add	r28, r28
 85a:	67 2f       	mov	r22, r23
 85c:	6c 2b       	or	r22, r28
            b2 |= (c & 0x08) * 24;
 85e:	48 70       	andi	r20, 0x08	; 8
 860:	41 9f       	mul	r20, r17
 862:	c0 2d       	mov	r28, r0
 864:	11 24       	eor	r1, r1
 866:	46 2f       	mov	r20, r22
 868:	4c 2b       	or	r20, r28
 86a:	ed 01       	movw	r28, r26
 86c:	21 97       	sbiw	r28, 0x01	; 1

            // Копируем две части в кэш
            LcdCache[tmpIdx++] = b1;
 86e:	58 83       	st	Y, r21
            LcdCache[tmpIdx++] = b1;
 870:	5c 93       	st	X, r21
 872:	cc 5a       	subi	r28, 0xAC	; 172
 874:	df 4f       	sbci	r29, 0xFF	; 255
            LcdCache[tmpIdx + 82] = b2;
 876:	48 83       	st	Y, r20
 878:	21 96       	adiw	r28, 0x01	; 1
            LcdCache[tmpIdx + 83] = b2;
 87a:	48 83       	st	Y, r20
 87c:	31 96       	adiw	r30, 0x01	; 1
 87e:	12 96       	adiw	r26, 0x02	; 2
            LoWaterMark = tmpIdx;
        }

        if ( tmpIdx < 0 ) return OUT_OF_BORDER;

        for ( i = 0; i < 5; i++ )
 880:	a8 17       	cp	r26, r24
 882:	b9 07       	cpc	r27, r25
 884:	09 f0       	breq	.+2      	; 0x888 <LcdChr+0x160>
 886:	bd cf       	rjmp	.-134    	; 0x802 <LcdChr+0xda>
            LcdCache[tmpIdx + 82] = b2;
            LcdCache[tmpIdx + 83] = b2;
        }

        // Обновляем x координату курсора
        LcdCacheIdx = (LcdCacheIdx + 11) % LCD_CACHE_SIZE;
 888:	c9 01       	movw	r24, r18
 88a:	0b 96       	adiw	r24, 0x0b	; 11
 88c:	68 ef       	ldi	r22, 0xF8	; 248
 88e:	71 e0       	ldi	r23, 0x01	; 1
 890:	58 d2       	rcall	.+1200   	; 0xd42 <__divmodhi4>
 892:	90 93 72 00 	sts	0x0072, r25
 896:	80 93 71 00 	sts	0x0071, r24
    }

    if ( LcdCacheIdx > HiWaterMark )
 89a:	80 91 71 00 	lds	r24, 0x0071
 89e:	90 91 72 00 	lds	r25, 0x0072
 8a2:	20 91 73 00 	lds	r18, 0x0073
 8a6:	30 91 74 00 	lds	r19, 0x0074
 8aa:	28 17       	cp	r18, r24
 8ac:	39 07       	cpc	r19, r25
 8ae:	24 f4       	brge	.+8      	; 0x8b8 <LcdChr+0x190>
    {
        // Обновляем верхнюю границу
        HiWaterMark = LcdCacheIdx;
 8b0:	90 93 74 00 	sts	0x0074, r25
 8b4:	80 93 73 00 	sts	0x0073, r24
    }

    // Горизонтальный разрыв между символами
    LcdCache[LcdCacheIdx] = 0x00;
 8b8:	fc 01       	movw	r30, r24
 8ba:	e9 58       	subi	r30, 0x89	; 137
 8bc:	ff 4f       	sbci	r31, 0xFF	; 255
 8be:	10 82       	st	Z, r1
    // Если достигли позицию указателя LCD_CACHE_SIZE - 1, переходим в начало
    if(LcdCacheIdx == (LCD_CACHE_SIZE - 1) )
 8c0:	87 3f       	cpi	r24, 0xF7	; 247
 8c2:	21 e0       	ldi	r18, 0x01	; 1
 8c4:	92 07       	cpc	r25, r18
 8c6:	31 f4       	brne	.+12     	; 0x8d4 <LcdChr+0x1ac>
    {
        LcdCacheIdx = 0;
 8c8:	10 92 72 00 	sts	0x0072, r1
 8cc:	10 92 71 00 	sts	0x0071, r1
        return OK_WITH_WRAP;
 8d0:	82 e0       	ldi	r24, 0x02	; 2
 8d2:	08 c0       	rjmp	.+16     	; 0x8e4 <LcdChr+0x1bc>
    }
    // Иначе просто инкрементируем указатель
    LcdCacheIdx++;
 8d4:	01 96       	adiw	r24, 0x01	; 1
 8d6:	90 93 72 00 	sts	0x0072, r25
 8da:	80 93 71 00 	sts	0x0071, r24
    return OK;
 8de:	80 e0       	ldi	r24, 0x00	; 0
 8e0:	01 c0       	rjmp	.+2      	; 0x8e4 <LcdChr+0x1bc>
        if ( tmpIdx < LoWaterMark )
        {
            LoWaterMark = tmpIdx;
        }

        if ( tmpIdx < 0 ) return OUT_OF_BORDER;
 8e2:	81 e0       	ldi	r24, 0x01	; 1
        return OK_WITH_WRAP;
    }
    // Иначе просто инкрементируем указатель
    LcdCacheIdx++;
    return OK;
}
 8e4:	df 91       	pop	r29
 8e6:	cf 91       	pop	r28
 8e8:	1f 91       	pop	r17
 8ea:	08 95       	ret

000008ec <Lcd_print>:
 * Возвращаемое значение :  смотри возвращаемое значение в n5110lcd.h
 * Пример                :  LcdFStr(0, 0, FONT_1X,(unsigned char*)some_char);
 *                          LcdFStr(0, 0, FONT_1X, &name_of_string_as_array);
 */
byte Lcd_print ( byte x, byte y, LcdFontSize size, byte dataArray[] )
{
 8ec:	0f 93       	push	r16
 8ee:	1f 93       	push	r17
 8f0:	cf 93       	push	r28
 8f2:	df 93       	push	r29
 8f4:	04 2f       	mov	r16, r20
 8f6:	e9 01       	movw	r28, r18
	LcdGotoXY(x,y);
 8f8:	fc de       	rcall	.-520    	; 0x6f2 <LcdGotoXY>
    byte tmpIdx=0;
    byte response;
    while( dataArray[ tmpIdx ] != '\0' )
 8fa:	68 81       	ld	r22, Y
 8fc:	66 23       	and	r22, r22
 8fe:	69 f0       	breq	.+26     	; 0x91a <Lcd_print+0x2e>
 *                          LcdFStr(0, 0, FONT_1X, &name_of_string_as_array);
 */
byte Lcd_print ( byte x, byte y, LcdFontSize size, byte dataArray[] )
{
	LcdGotoXY(x,y);
    byte tmpIdx=0;
 900:	10 e0       	ldi	r17, 0x00	; 0
    byte response;
    while( dataArray[ tmpIdx ] != '\0' )
    {
        // Выводим символ
        response = LcdChr( size, dataArray[ tmpIdx ] );
 902:	80 2f       	mov	r24, r16
 904:	11 df       	rcall	.-478    	; 0x728 <LcdChr>
        // Не стоит волноваться если произойдет OUT_OF_BORDER,
        // строка будет печататься дальше из начала дисплея
        if( response == OUT_OF_BORDER)
 906:	81 30       	cpi	r24, 0x01	; 1
 908:	51 f0       	breq	.+20     	; 0x91e <Lcd_print+0x32>
            return OUT_OF_BORDER;
        // Увеличиваем указатель
        tmpIdx++;
 90a:	1f 5f       	subi	r17, 0xFF	; 255
byte Lcd_print ( byte x, byte y, LcdFontSize size, byte dataArray[] )
{
	LcdGotoXY(x,y);
    byte tmpIdx=0;
    byte response;
    while( dataArray[ tmpIdx ] != '\0' )
 90c:	fe 01       	movw	r30, r28
 90e:	e1 0f       	add	r30, r17
 910:	f1 1d       	adc	r31, r1
 912:	60 81       	ld	r22, Z
 914:	61 11       	cpse	r22, r1
 916:	f5 cf       	rjmp	.-22     	; 0x902 <Lcd_print+0x16>
 918:	04 c0       	rjmp	.+8      	; 0x922 <Lcd_print+0x36>
        if( response == OUT_OF_BORDER)
            return OUT_OF_BORDER;
        // Увеличиваем указатель
        tmpIdx++;
    }
    return OK;
 91a:	80 e0       	ldi	r24, 0x00	; 0
 91c:	03 c0       	rjmp	.+6      	; 0x924 <Lcd_print+0x38>
        // Выводим символ
        response = LcdChr( size, dataArray[ tmpIdx ] );
        // Не стоит волноваться если произойдет OUT_OF_BORDER,
        // строка будет печататься дальше из начала дисплея
        if( response == OUT_OF_BORDER)
            return OUT_OF_BORDER;
 91e:	81 e0       	ldi	r24, 0x01	; 1
 920:	01 c0       	rjmp	.+2      	; 0x924 <Lcd_print+0x38>
        // Увеличиваем указатель
        tmpIdx++;
    }
    return OK;
 922:	80 e0       	ldi	r24, 0x00	; 0
}
 924:	df 91       	pop	r29
 926:	cf 91       	pop	r28
 928:	1f 91       	pop	r17
 92a:	0f 91       	pop	r16
 92c:	08 95       	ret

0000092e <Lcd_printf>:
 * Возвращаемое значение :  смотри возвращаемое значение в n5110lcd.h
 * Пример                :  LcdFStr(0, 0, FONT_1X, float_var , 2);
 *                          LcdFStr(0, 0, FONT_1X, &name_of_string_as_array);
 */
void Lcd_printf ( byte x, byte y, LcdFontSize size, float data, int accuracy )
{
 92e:	df 92       	push	r13
 930:	ef 92       	push	r14
 932:	ff 92       	push	r15
 934:	0f 93       	push	r16
 936:	1f 93       	push	r17
 938:	cf 93       	push	r28
 93a:	df 93       	push	r29
 93c:	c8 2f       	mov	r28, r24
 93e:	d6 2f       	mov	r29, r22
 940:	d4 2e       	mov	r13, r20
	Lcd_print(x, y, size, (unsigned char*)gftoa(data, accuracy));
 942:	a7 01       	movw	r20, r14
 944:	c9 01       	movw	r24, r18
 946:	b8 01       	movw	r22, r16
 948:	ac dd       	rcall	.-1192   	; 0x4a2 <gftoa>
 94a:	9c 01       	movw	r18, r24
 94c:	4d 2d       	mov	r20, r13
 94e:	6d 2f       	mov	r22, r29
 950:	8c 2f       	mov	r24, r28
 952:	cc df       	rcall	.-104    	; 0x8ec <Lcd_print>
}
 954:	df 91       	pop	r29
 956:	cf 91       	pop	r28
 958:	1f 91       	pop	r17
 95a:	0f 91       	pop	r16
 95c:	ff 90       	pop	r15
 95e:	ef 90       	pop	r14
 960:	df 90       	pop	r13
 962:	08 95       	ret

00000964 <__subsf3>:
 964:	50 58       	subi	r21, 0x80	; 128

00000966 <__addsf3>:
 966:	bb 27       	eor	r27, r27
 968:	aa 27       	eor	r26, r26
 96a:	0e d0       	rcall	.+28     	; 0x988 <__addsf3x>
 96c:	4d c1       	rjmp	.+666    	; 0xc08 <__fp_round>
 96e:	3e d1       	rcall	.+636    	; 0xbec <__fp_pscA>
 970:	30 f0       	brcs	.+12     	; 0x97e <__addsf3+0x18>
 972:	43 d1       	rcall	.+646    	; 0xbfa <__fp_pscB>
 974:	20 f0       	brcs	.+8      	; 0x97e <__addsf3+0x18>
 976:	31 f4       	brne	.+12     	; 0x984 <__addsf3+0x1e>
 978:	9f 3f       	cpi	r25, 0xFF	; 255
 97a:	11 f4       	brne	.+4      	; 0x980 <__addsf3+0x1a>
 97c:	1e f4       	brtc	.+6      	; 0x984 <__addsf3+0x1e>
 97e:	33 c1       	rjmp	.+614    	; 0xbe6 <__fp_nan>
 980:	0e f4       	brtc	.+2      	; 0x984 <__addsf3+0x1e>
 982:	e0 95       	com	r30
 984:	e7 fb       	bst	r30, 7
 986:	29 c1       	rjmp	.+594    	; 0xbda <__fp_inf>

00000988 <__addsf3x>:
 988:	e9 2f       	mov	r30, r25
 98a:	4f d1       	rcall	.+670    	; 0xc2a <__fp_split3>
 98c:	80 f3       	brcs	.-32     	; 0x96e <__addsf3+0x8>
 98e:	ba 17       	cp	r27, r26
 990:	62 07       	cpc	r22, r18
 992:	73 07       	cpc	r23, r19
 994:	84 07       	cpc	r24, r20
 996:	95 07       	cpc	r25, r21
 998:	18 f0       	brcs	.+6      	; 0x9a0 <__addsf3x+0x18>
 99a:	71 f4       	brne	.+28     	; 0x9b8 <__addsf3x+0x30>
 99c:	9e f5       	brtc	.+102    	; 0xa04 <__addsf3x+0x7c>
 99e:	67 c1       	rjmp	.+718    	; 0xc6e <__fp_zero>
 9a0:	0e f4       	brtc	.+2      	; 0x9a4 <__addsf3x+0x1c>
 9a2:	e0 95       	com	r30
 9a4:	0b 2e       	mov	r0, r27
 9a6:	ba 2f       	mov	r27, r26
 9a8:	a0 2d       	mov	r26, r0
 9aa:	0b 01       	movw	r0, r22
 9ac:	b9 01       	movw	r22, r18
 9ae:	90 01       	movw	r18, r0
 9b0:	0c 01       	movw	r0, r24
 9b2:	ca 01       	movw	r24, r20
 9b4:	a0 01       	movw	r20, r0
 9b6:	11 24       	eor	r1, r1
 9b8:	ff 27       	eor	r31, r31
 9ba:	59 1b       	sub	r21, r25
 9bc:	99 f0       	breq	.+38     	; 0x9e4 <__addsf3x+0x5c>
 9be:	59 3f       	cpi	r21, 0xF9	; 249
 9c0:	50 f4       	brcc	.+20     	; 0x9d6 <__addsf3x+0x4e>
 9c2:	50 3e       	cpi	r21, 0xE0	; 224
 9c4:	68 f1       	brcs	.+90     	; 0xa20 <__addsf3x+0x98>
 9c6:	1a 16       	cp	r1, r26
 9c8:	f0 40       	sbci	r31, 0x00	; 0
 9ca:	a2 2f       	mov	r26, r18
 9cc:	23 2f       	mov	r18, r19
 9ce:	34 2f       	mov	r19, r20
 9d0:	44 27       	eor	r20, r20
 9d2:	58 5f       	subi	r21, 0xF8	; 248
 9d4:	f3 cf       	rjmp	.-26     	; 0x9bc <__addsf3x+0x34>
 9d6:	46 95       	lsr	r20
 9d8:	37 95       	ror	r19
 9da:	27 95       	ror	r18
 9dc:	a7 95       	ror	r26
 9de:	f0 40       	sbci	r31, 0x00	; 0
 9e0:	53 95       	inc	r21
 9e2:	c9 f7       	brne	.-14     	; 0x9d6 <__addsf3x+0x4e>
 9e4:	7e f4       	brtc	.+30     	; 0xa04 <__addsf3x+0x7c>
 9e6:	1f 16       	cp	r1, r31
 9e8:	ba 0b       	sbc	r27, r26
 9ea:	62 0b       	sbc	r22, r18
 9ec:	73 0b       	sbc	r23, r19
 9ee:	84 0b       	sbc	r24, r20
 9f0:	ba f0       	brmi	.+46     	; 0xa20 <__addsf3x+0x98>
 9f2:	91 50       	subi	r25, 0x01	; 1
 9f4:	a1 f0       	breq	.+40     	; 0xa1e <__addsf3x+0x96>
 9f6:	ff 0f       	add	r31, r31
 9f8:	bb 1f       	adc	r27, r27
 9fa:	66 1f       	adc	r22, r22
 9fc:	77 1f       	adc	r23, r23
 9fe:	88 1f       	adc	r24, r24
 a00:	c2 f7       	brpl	.-16     	; 0x9f2 <__addsf3x+0x6a>
 a02:	0e c0       	rjmp	.+28     	; 0xa20 <__addsf3x+0x98>
 a04:	ba 0f       	add	r27, r26
 a06:	62 1f       	adc	r22, r18
 a08:	73 1f       	adc	r23, r19
 a0a:	84 1f       	adc	r24, r20
 a0c:	48 f4       	brcc	.+18     	; 0xa20 <__addsf3x+0x98>
 a0e:	87 95       	ror	r24
 a10:	77 95       	ror	r23
 a12:	67 95       	ror	r22
 a14:	b7 95       	ror	r27
 a16:	f7 95       	ror	r31
 a18:	9e 3f       	cpi	r25, 0xFE	; 254
 a1a:	08 f0       	brcs	.+2      	; 0xa1e <__addsf3x+0x96>
 a1c:	b3 cf       	rjmp	.-154    	; 0x984 <__addsf3+0x1e>
 a1e:	93 95       	inc	r25
 a20:	88 0f       	add	r24, r24
 a22:	08 f0       	brcs	.+2      	; 0xa26 <__addsf3x+0x9e>
 a24:	99 27       	eor	r25, r25
 a26:	ee 0f       	add	r30, r30
 a28:	97 95       	ror	r25
 a2a:	87 95       	ror	r24
 a2c:	08 95       	ret

00000a2e <__divsf3>:
 a2e:	0c d0       	rcall	.+24     	; 0xa48 <__divsf3x>
 a30:	eb c0       	rjmp	.+470    	; 0xc08 <__fp_round>
 a32:	e3 d0       	rcall	.+454    	; 0xbfa <__fp_pscB>
 a34:	40 f0       	brcs	.+16     	; 0xa46 <__divsf3+0x18>
 a36:	da d0       	rcall	.+436    	; 0xbec <__fp_pscA>
 a38:	30 f0       	brcs	.+12     	; 0xa46 <__divsf3+0x18>
 a3a:	21 f4       	brne	.+8      	; 0xa44 <__divsf3+0x16>
 a3c:	5f 3f       	cpi	r21, 0xFF	; 255
 a3e:	19 f0       	breq	.+6      	; 0xa46 <__divsf3+0x18>
 a40:	cc c0       	rjmp	.+408    	; 0xbda <__fp_inf>
 a42:	51 11       	cpse	r21, r1
 a44:	15 c1       	rjmp	.+554    	; 0xc70 <__fp_szero>
 a46:	cf c0       	rjmp	.+414    	; 0xbe6 <__fp_nan>

00000a48 <__divsf3x>:
 a48:	f0 d0       	rcall	.+480    	; 0xc2a <__fp_split3>
 a4a:	98 f3       	brcs	.-26     	; 0xa32 <__divsf3+0x4>

00000a4c <__divsf3_pse>:
 a4c:	99 23       	and	r25, r25
 a4e:	c9 f3       	breq	.-14     	; 0xa42 <__divsf3+0x14>
 a50:	55 23       	and	r21, r21
 a52:	b1 f3       	breq	.-20     	; 0xa40 <__divsf3+0x12>
 a54:	95 1b       	sub	r25, r21
 a56:	55 0b       	sbc	r21, r21
 a58:	bb 27       	eor	r27, r27
 a5a:	aa 27       	eor	r26, r26
 a5c:	62 17       	cp	r22, r18
 a5e:	73 07       	cpc	r23, r19
 a60:	84 07       	cpc	r24, r20
 a62:	38 f0       	brcs	.+14     	; 0xa72 <__divsf3_pse+0x26>
 a64:	9f 5f       	subi	r25, 0xFF	; 255
 a66:	5f 4f       	sbci	r21, 0xFF	; 255
 a68:	22 0f       	add	r18, r18
 a6a:	33 1f       	adc	r19, r19
 a6c:	44 1f       	adc	r20, r20
 a6e:	aa 1f       	adc	r26, r26
 a70:	a9 f3       	breq	.-22     	; 0xa5c <__divsf3_pse+0x10>
 a72:	33 d0       	rcall	.+102    	; 0xada <__divsf3_pse+0x8e>
 a74:	0e 2e       	mov	r0, r30
 a76:	3a f0       	brmi	.+14     	; 0xa86 <__divsf3_pse+0x3a>
 a78:	e0 e8       	ldi	r30, 0x80	; 128
 a7a:	30 d0       	rcall	.+96     	; 0xadc <__divsf3_pse+0x90>
 a7c:	91 50       	subi	r25, 0x01	; 1
 a7e:	50 40       	sbci	r21, 0x00	; 0
 a80:	e6 95       	lsr	r30
 a82:	00 1c       	adc	r0, r0
 a84:	ca f7       	brpl	.-14     	; 0xa78 <__divsf3_pse+0x2c>
 a86:	29 d0       	rcall	.+82     	; 0xada <__divsf3_pse+0x8e>
 a88:	fe 2f       	mov	r31, r30
 a8a:	27 d0       	rcall	.+78     	; 0xada <__divsf3_pse+0x8e>
 a8c:	66 0f       	add	r22, r22
 a8e:	77 1f       	adc	r23, r23
 a90:	88 1f       	adc	r24, r24
 a92:	bb 1f       	adc	r27, r27
 a94:	26 17       	cp	r18, r22
 a96:	37 07       	cpc	r19, r23
 a98:	48 07       	cpc	r20, r24
 a9a:	ab 07       	cpc	r26, r27
 a9c:	b0 e8       	ldi	r27, 0x80	; 128
 a9e:	09 f0       	breq	.+2      	; 0xaa2 <__divsf3_pse+0x56>
 aa0:	bb 0b       	sbc	r27, r27
 aa2:	80 2d       	mov	r24, r0
 aa4:	bf 01       	movw	r22, r30
 aa6:	ff 27       	eor	r31, r31
 aa8:	93 58       	subi	r25, 0x83	; 131
 aaa:	5f 4f       	sbci	r21, 0xFF	; 255
 aac:	2a f0       	brmi	.+10     	; 0xab8 <__divsf3_pse+0x6c>
 aae:	9e 3f       	cpi	r25, 0xFE	; 254
 ab0:	51 05       	cpc	r21, r1
 ab2:	68 f0       	brcs	.+26     	; 0xace <__divsf3_pse+0x82>
 ab4:	92 c0       	rjmp	.+292    	; 0xbda <__fp_inf>
 ab6:	dc c0       	rjmp	.+440    	; 0xc70 <__fp_szero>
 ab8:	5f 3f       	cpi	r21, 0xFF	; 255
 aba:	ec f3       	brlt	.-6      	; 0xab6 <__divsf3_pse+0x6a>
 abc:	98 3e       	cpi	r25, 0xE8	; 232
 abe:	dc f3       	brlt	.-10     	; 0xab6 <__divsf3_pse+0x6a>
 ac0:	86 95       	lsr	r24
 ac2:	77 95       	ror	r23
 ac4:	67 95       	ror	r22
 ac6:	b7 95       	ror	r27
 ac8:	f7 95       	ror	r31
 aca:	9f 5f       	subi	r25, 0xFF	; 255
 acc:	c9 f7       	brne	.-14     	; 0xac0 <__divsf3_pse+0x74>
 ace:	88 0f       	add	r24, r24
 ad0:	91 1d       	adc	r25, r1
 ad2:	96 95       	lsr	r25
 ad4:	87 95       	ror	r24
 ad6:	97 f9       	bld	r25, 7
 ad8:	08 95       	ret
 ada:	e1 e0       	ldi	r30, 0x01	; 1
 adc:	66 0f       	add	r22, r22
 ade:	77 1f       	adc	r23, r23
 ae0:	88 1f       	adc	r24, r24
 ae2:	bb 1f       	adc	r27, r27
 ae4:	62 17       	cp	r22, r18
 ae6:	73 07       	cpc	r23, r19
 ae8:	84 07       	cpc	r24, r20
 aea:	ba 07       	cpc	r27, r26
 aec:	20 f0       	brcs	.+8      	; 0xaf6 <__divsf3_pse+0xaa>
 aee:	62 1b       	sub	r22, r18
 af0:	73 0b       	sbc	r23, r19
 af2:	84 0b       	sbc	r24, r20
 af4:	ba 0b       	sbc	r27, r26
 af6:	ee 1f       	adc	r30, r30
 af8:	88 f7       	brcc	.-30     	; 0xadc <__divsf3_pse+0x90>
 afa:	e0 95       	com	r30
 afc:	08 95       	ret

00000afe <__fixsfsi>:
 afe:	04 d0       	rcall	.+8      	; 0xb08 <__fixunssfsi>
 b00:	68 94       	set
 b02:	b1 11       	cpse	r27, r1
 b04:	b5 c0       	rjmp	.+362    	; 0xc70 <__fp_szero>
 b06:	08 95       	ret

00000b08 <__fixunssfsi>:
 b08:	98 d0       	rcall	.+304    	; 0xc3a <__fp_splitA>
 b0a:	88 f0       	brcs	.+34     	; 0xb2e <__fixunssfsi+0x26>
 b0c:	9f 57       	subi	r25, 0x7F	; 127
 b0e:	90 f0       	brcs	.+36     	; 0xb34 <__fixunssfsi+0x2c>
 b10:	b9 2f       	mov	r27, r25
 b12:	99 27       	eor	r25, r25
 b14:	b7 51       	subi	r27, 0x17	; 23
 b16:	a0 f0       	brcs	.+40     	; 0xb40 <__fixunssfsi+0x38>
 b18:	d1 f0       	breq	.+52     	; 0xb4e <__fixunssfsi+0x46>
 b1a:	66 0f       	add	r22, r22
 b1c:	77 1f       	adc	r23, r23
 b1e:	88 1f       	adc	r24, r24
 b20:	99 1f       	adc	r25, r25
 b22:	1a f0       	brmi	.+6      	; 0xb2a <__fixunssfsi+0x22>
 b24:	ba 95       	dec	r27
 b26:	c9 f7       	brne	.-14     	; 0xb1a <__fixunssfsi+0x12>
 b28:	12 c0       	rjmp	.+36     	; 0xb4e <__fixunssfsi+0x46>
 b2a:	b1 30       	cpi	r27, 0x01	; 1
 b2c:	81 f0       	breq	.+32     	; 0xb4e <__fixunssfsi+0x46>
 b2e:	9f d0       	rcall	.+318    	; 0xc6e <__fp_zero>
 b30:	b1 e0       	ldi	r27, 0x01	; 1
 b32:	08 95       	ret
 b34:	9c c0       	rjmp	.+312    	; 0xc6e <__fp_zero>
 b36:	67 2f       	mov	r22, r23
 b38:	78 2f       	mov	r23, r24
 b3a:	88 27       	eor	r24, r24
 b3c:	b8 5f       	subi	r27, 0xF8	; 248
 b3e:	39 f0       	breq	.+14     	; 0xb4e <__fixunssfsi+0x46>
 b40:	b9 3f       	cpi	r27, 0xF9	; 249
 b42:	cc f3       	brlt	.-14     	; 0xb36 <__fixunssfsi+0x2e>
 b44:	86 95       	lsr	r24
 b46:	77 95       	ror	r23
 b48:	67 95       	ror	r22
 b4a:	b3 95       	inc	r27
 b4c:	d9 f7       	brne	.-10     	; 0xb44 <__fixunssfsi+0x3c>
 b4e:	3e f4       	brtc	.+14     	; 0xb5e <__fixunssfsi+0x56>
 b50:	90 95       	com	r25
 b52:	80 95       	com	r24
 b54:	70 95       	com	r23
 b56:	61 95       	neg	r22
 b58:	7f 4f       	sbci	r23, 0xFF	; 255
 b5a:	8f 4f       	sbci	r24, 0xFF	; 255
 b5c:	9f 4f       	sbci	r25, 0xFF	; 255
 b5e:	08 95       	ret

00000b60 <__floatunsisf>:
 b60:	e8 94       	clt
 b62:	09 c0       	rjmp	.+18     	; 0xb76 <__floatsisf+0x12>

00000b64 <__floatsisf>:
 b64:	97 fb       	bst	r25, 7
 b66:	3e f4       	brtc	.+14     	; 0xb76 <__floatsisf+0x12>
 b68:	90 95       	com	r25
 b6a:	80 95       	com	r24
 b6c:	70 95       	com	r23
 b6e:	61 95       	neg	r22
 b70:	7f 4f       	sbci	r23, 0xFF	; 255
 b72:	8f 4f       	sbci	r24, 0xFF	; 255
 b74:	9f 4f       	sbci	r25, 0xFF	; 255
 b76:	99 23       	and	r25, r25
 b78:	a9 f0       	breq	.+42     	; 0xba4 <__floatsisf+0x40>
 b7a:	f9 2f       	mov	r31, r25
 b7c:	96 e9       	ldi	r25, 0x96	; 150
 b7e:	bb 27       	eor	r27, r27
 b80:	93 95       	inc	r25
 b82:	f6 95       	lsr	r31
 b84:	87 95       	ror	r24
 b86:	77 95       	ror	r23
 b88:	67 95       	ror	r22
 b8a:	b7 95       	ror	r27
 b8c:	f1 11       	cpse	r31, r1
 b8e:	f8 cf       	rjmp	.-16     	; 0xb80 <__floatsisf+0x1c>
 b90:	fa f4       	brpl	.+62     	; 0xbd0 <__floatsisf+0x6c>
 b92:	bb 0f       	add	r27, r27
 b94:	11 f4       	brne	.+4      	; 0xb9a <__floatsisf+0x36>
 b96:	60 ff       	sbrs	r22, 0
 b98:	1b c0       	rjmp	.+54     	; 0xbd0 <__floatsisf+0x6c>
 b9a:	6f 5f       	subi	r22, 0xFF	; 255
 b9c:	7f 4f       	sbci	r23, 0xFF	; 255
 b9e:	8f 4f       	sbci	r24, 0xFF	; 255
 ba0:	9f 4f       	sbci	r25, 0xFF	; 255
 ba2:	16 c0       	rjmp	.+44     	; 0xbd0 <__floatsisf+0x6c>
 ba4:	88 23       	and	r24, r24
 ba6:	11 f0       	breq	.+4      	; 0xbac <__floatsisf+0x48>
 ba8:	96 e9       	ldi	r25, 0x96	; 150
 baa:	11 c0       	rjmp	.+34     	; 0xbce <__floatsisf+0x6a>
 bac:	77 23       	and	r23, r23
 bae:	21 f0       	breq	.+8      	; 0xbb8 <__floatsisf+0x54>
 bb0:	9e e8       	ldi	r25, 0x8E	; 142
 bb2:	87 2f       	mov	r24, r23
 bb4:	76 2f       	mov	r23, r22
 bb6:	05 c0       	rjmp	.+10     	; 0xbc2 <__floatsisf+0x5e>
 bb8:	66 23       	and	r22, r22
 bba:	71 f0       	breq	.+28     	; 0xbd8 <__floatsisf+0x74>
 bbc:	96 e8       	ldi	r25, 0x86	; 134
 bbe:	86 2f       	mov	r24, r22
 bc0:	70 e0       	ldi	r23, 0x00	; 0
 bc2:	60 e0       	ldi	r22, 0x00	; 0
 bc4:	2a f0       	brmi	.+10     	; 0xbd0 <__floatsisf+0x6c>
 bc6:	9a 95       	dec	r25
 bc8:	66 0f       	add	r22, r22
 bca:	77 1f       	adc	r23, r23
 bcc:	88 1f       	adc	r24, r24
 bce:	da f7       	brpl	.-10     	; 0xbc6 <__floatsisf+0x62>
 bd0:	88 0f       	add	r24, r24
 bd2:	96 95       	lsr	r25
 bd4:	87 95       	ror	r24
 bd6:	97 f9       	bld	r25, 7
 bd8:	08 95       	ret

00000bda <__fp_inf>:
 bda:	97 f9       	bld	r25, 7
 bdc:	9f 67       	ori	r25, 0x7F	; 127
 bde:	80 e8       	ldi	r24, 0x80	; 128
 be0:	70 e0       	ldi	r23, 0x00	; 0
 be2:	60 e0       	ldi	r22, 0x00	; 0
 be4:	08 95       	ret

00000be6 <__fp_nan>:
 be6:	9f ef       	ldi	r25, 0xFF	; 255
 be8:	80 ec       	ldi	r24, 0xC0	; 192
 bea:	08 95       	ret

00000bec <__fp_pscA>:
 bec:	00 24       	eor	r0, r0
 bee:	0a 94       	dec	r0
 bf0:	16 16       	cp	r1, r22
 bf2:	17 06       	cpc	r1, r23
 bf4:	18 06       	cpc	r1, r24
 bf6:	09 06       	cpc	r0, r25
 bf8:	08 95       	ret

00000bfa <__fp_pscB>:
 bfa:	00 24       	eor	r0, r0
 bfc:	0a 94       	dec	r0
 bfe:	12 16       	cp	r1, r18
 c00:	13 06       	cpc	r1, r19
 c02:	14 06       	cpc	r1, r20
 c04:	05 06       	cpc	r0, r21
 c06:	08 95       	ret

00000c08 <__fp_round>:
 c08:	09 2e       	mov	r0, r25
 c0a:	03 94       	inc	r0
 c0c:	00 0c       	add	r0, r0
 c0e:	11 f4       	brne	.+4      	; 0xc14 <__fp_round+0xc>
 c10:	88 23       	and	r24, r24
 c12:	52 f0       	brmi	.+20     	; 0xc28 <__fp_round+0x20>
 c14:	bb 0f       	add	r27, r27
 c16:	40 f4       	brcc	.+16     	; 0xc28 <__fp_round+0x20>
 c18:	bf 2b       	or	r27, r31
 c1a:	11 f4       	brne	.+4      	; 0xc20 <__fp_round+0x18>
 c1c:	60 ff       	sbrs	r22, 0
 c1e:	04 c0       	rjmp	.+8      	; 0xc28 <__fp_round+0x20>
 c20:	6f 5f       	subi	r22, 0xFF	; 255
 c22:	7f 4f       	sbci	r23, 0xFF	; 255
 c24:	8f 4f       	sbci	r24, 0xFF	; 255
 c26:	9f 4f       	sbci	r25, 0xFF	; 255
 c28:	08 95       	ret

00000c2a <__fp_split3>:
 c2a:	57 fd       	sbrc	r21, 7
 c2c:	90 58       	subi	r25, 0x80	; 128
 c2e:	44 0f       	add	r20, r20
 c30:	55 1f       	adc	r21, r21
 c32:	59 f0       	breq	.+22     	; 0xc4a <__fp_splitA+0x10>
 c34:	5f 3f       	cpi	r21, 0xFF	; 255
 c36:	71 f0       	breq	.+28     	; 0xc54 <__fp_splitA+0x1a>
 c38:	47 95       	ror	r20

00000c3a <__fp_splitA>:
 c3a:	88 0f       	add	r24, r24
 c3c:	97 fb       	bst	r25, 7
 c3e:	99 1f       	adc	r25, r25
 c40:	61 f0       	breq	.+24     	; 0xc5a <__fp_splitA+0x20>
 c42:	9f 3f       	cpi	r25, 0xFF	; 255
 c44:	79 f0       	breq	.+30     	; 0xc64 <__fp_splitA+0x2a>
 c46:	87 95       	ror	r24
 c48:	08 95       	ret
 c4a:	12 16       	cp	r1, r18
 c4c:	13 06       	cpc	r1, r19
 c4e:	14 06       	cpc	r1, r20
 c50:	55 1f       	adc	r21, r21
 c52:	f2 cf       	rjmp	.-28     	; 0xc38 <__fp_split3+0xe>
 c54:	46 95       	lsr	r20
 c56:	f1 df       	rcall	.-30     	; 0xc3a <__fp_splitA>
 c58:	08 c0       	rjmp	.+16     	; 0xc6a <__fp_splitA+0x30>
 c5a:	16 16       	cp	r1, r22
 c5c:	17 06       	cpc	r1, r23
 c5e:	18 06       	cpc	r1, r24
 c60:	99 1f       	adc	r25, r25
 c62:	f1 cf       	rjmp	.-30     	; 0xc46 <__fp_splitA+0xc>
 c64:	86 95       	lsr	r24
 c66:	71 05       	cpc	r23, r1
 c68:	61 05       	cpc	r22, r1
 c6a:	08 94       	sec
 c6c:	08 95       	ret

00000c6e <__fp_zero>:
 c6e:	e8 94       	clt

00000c70 <__fp_szero>:
 c70:	bb 27       	eor	r27, r27
 c72:	66 27       	eor	r22, r22
 c74:	77 27       	eor	r23, r23
 c76:	cb 01       	movw	r24, r22
 c78:	97 f9       	bld	r25, 7
 c7a:	08 95       	ret

00000c7c <__mulsf3>:
 c7c:	0b d0       	rcall	.+22     	; 0xc94 <__mulsf3x>
 c7e:	c4 cf       	rjmp	.-120    	; 0xc08 <__fp_round>
 c80:	b5 df       	rcall	.-150    	; 0xbec <__fp_pscA>
 c82:	28 f0       	brcs	.+10     	; 0xc8e <__mulsf3+0x12>
 c84:	ba df       	rcall	.-140    	; 0xbfa <__fp_pscB>
 c86:	18 f0       	brcs	.+6      	; 0xc8e <__mulsf3+0x12>
 c88:	95 23       	and	r25, r21
 c8a:	09 f0       	breq	.+2      	; 0xc8e <__mulsf3+0x12>
 c8c:	a6 cf       	rjmp	.-180    	; 0xbda <__fp_inf>
 c8e:	ab cf       	rjmp	.-170    	; 0xbe6 <__fp_nan>
 c90:	11 24       	eor	r1, r1
 c92:	ee cf       	rjmp	.-36     	; 0xc70 <__fp_szero>

00000c94 <__mulsf3x>:
 c94:	ca df       	rcall	.-108    	; 0xc2a <__fp_split3>
 c96:	a0 f3       	brcs	.-24     	; 0xc80 <__mulsf3+0x4>

00000c98 <__mulsf3_pse>:
 c98:	95 9f       	mul	r25, r21
 c9a:	d1 f3       	breq	.-12     	; 0xc90 <__mulsf3+0x14>
 c9c:	95 0f       	add	r25, r21
 c9e:	50 e0       	ldi	r21, 0x00	; 0
 ca0:	55 1f       	adc	r21, r21
 ca2:	62 9f       	mul	r22, r18
 ca4:	f0 01       	movw	r30, r0
 ca6:	72 9f       	mul	r23, r18
 ca8:	bb 27       	eor	r27, r27
 caa:	f0 0d       	add	r31, r0
 cac:	b1 1d       	adc	r27, r1
 cae:	63 9f       	mul	r22, r19
 cb0:	aa 27       	eor	r26, r26
 cb2:	f0 0d       	add	r31, r0
 cb4:	b1 1d       	adc	r27, r1
 cb6:	aa 1f       	adc	r26, r26
 cb8:	64 9f       	mul	r22, r20
 cba:	66 27       	eor	r22, r22
 cbc:	b0 0d       	add	r27, r0
 cbe:	a1 1d       	adc	r26, r1
 cc0:	66 1f       	adc	r22, r22
 cc2:	82 9f       	mul	r24, r18
 cc4:	22 27       	eor	r18, r18
 cc6:	b0 0d       	add	r27, r0
 cc8:	a1 1d       	adc	r26, r1
 cca:	62 1f       	adc	r22, r18
 ccc:	73 9f       	mul	r23, r19
 cce:	b0 0d       	add	r27, r0
 cd0:	a1 1d       	adc	r26, r1
 cd2:	62 1f       	adc	r22, r18
 cd4:	83 9f       	mul	r24, r19
 cd6:	a0 0d       	add	r26, r0
 cd8:	61 1d       	adc	r22, r1
 cda:	22 1f       	adc	r18, r18
 cdc:	74 9f       	mul	r23, r20
 cde:	33 27       	eor	r19, r19
 ce0:	a0 0d       	add	r26, r0
 ce2:	61 1d       	adc	r22, r1
 ce4:	23 1f       	adc	r18, r19
 ce6:	84 9f       	mul	r24, r20
 ce8:	60 0d       	add	r22, r0
 cea:	21 1d       	adc	r18, r1
 cec:	82 2f       	mov	r24, r18
 cee:	76 2f       	mov	r23, r22
 cf0:	6a 2f       	mov	r22, r26
 cf2:	11 24       	eor	r1, r1
 cf4:	9f 57       	subi	r25, 0x7F	; 127
 cf6:	50 40       	sbci	r21, 0x00	; 0
 cf8:	8a f0       	brmi	.+34     	; 0xd1c <__mulsf3_pse+0x84>
 cfa:	e1 f0       	breq	.+56     	; 0xd34 <__mulsf3_pse+0x9c>
 cfc:	88 23       	and	r24, r24
 cfe:	4a f0       	brmi	.+18     	; 0xd12 <__mulsf3_pse+0x7a>
 d00:	ee 0f       	add	r30, r30
 d02:	ff 1f       	adc	r31, r31
 d04:	bb 1f       	adc	r27, r27
 d06:	66 1f       	adc	r22, r22
 d08:	77 1f       	adc	r23, r23
 d0a:	88 1f       	adc	r24, r24
 d0c:	91 50       	subi	r25, 0x01	; 1
 d0e:	50 40       	sbci	r21, 0x00	; 0
 d10:	a9 f7       	brne	.-22     	; 0xcfc <__mulsf3_pse+0x64>
 d12:	9e 3f       	cpi	r25, 0xFE	; 254
 d14:	51 05       	cpc	r21, r1
 d16:	70 f0       	brcs	.+28     	; 0xd34 <__mulsf3_pse+0x9c>
 d18:	60 cf       	rjmp	.-320    	; 0xbda <__fp_inf>
 d1a:	aa cf       	rjmp	.-172    	; 0xc70 <__fp_szero>
 d1c:	5f 3f       	cpi	r21, 0xFF	; 255
 d1e:	ec f3       	brlt	.-6      	; 0xd1a <__mulsf3_pse+0x82>
 d20:	98 3e       	cpi	r25, 0xE8	; 232
 d22:	dc f3       	brlt	.-10     	; 0xd1a <__mulsf3_pse+0x82>
 d24:	86 95       	lsr	r24
 d26:	77 95       	ror	r23
 d28:	67 95       	ror	r22
 d2a:	b7 95       	ror	r27
 d2c:	f7 95       	ror	r31
 d2e:	e7 95       	ror	r30
 d30:	9f 5f       	subi	r25, 0xFF	; 255
 d32:	c1 f7       	brne	.-16     	; 0xd24 <__mulsf3_pse+0x8c>
 d34:	fe 2b       	or	r31, r30
 d36:	88 0f       	add	r24, r24
 d38:	91 1d       	adc	r25, r1
 d3a:	96 95       	lsr	r25
 d3c:	87 95       	ror	r24
 d3e:	97 f9       	bld	r25, 7
 d40:	08 95       	ret

00000d42 <__divmodhi4>:
 d42:	97 fb       	bst	r25, 7
 d44:	07 2e       	mov	r0, r23
 d46:	16 f4       	brtc	.+4      	; 0xd4c <__divmodhi4+0xa>
 d48:	00 94       	com	r0
 d4a:	06 d0       	rcall	.+12     	; 0xd58 <__divmodhi4_neg1>
 d4c:	77 fd       	sbrc	r23, 7
 d4e:	08 d0       	rcall	.+16     	; 0xd60 <__divmodhi4_neg2>
 d50:	0b d0       	rcall	.+22     	; 0xd68 <__udivmodhi4>
 d52:	07 fc       	sbrc	r0, 7
 d54:	05 d0       	rcall	.+10     	; 0xd60 <__divmodhi4_neg2>
 d56:	3e f4       	brtc	.+14     	; 0xd66 <__divmodhi4_exit>

00000d58 <__divmodhi4_neg1>:
 d58:	90 95       	com	r25
 d5a:	81 95       	neg	r24
 d5c:	9f 4f       	sbci	r25, 0xFF	; 255
 d5e:	08 95       	ret

00000d60 <__divmodhi4_neg2>:
 d60:	70 95       	com	r23
 d62:	61 95       	neg	r22
 d64:	7f 4f       	sbci	r23, 0xFF	; 255

00000d66 <__divmodhi4_exit>:
 d66:	08 95       	ret

00000d68 <__udivmodhi4>:
 d68:	aa 1b       	sub	r26, r26
 d6a:	bb 1b       	sub	r27, r27
 d6c:	51 e1       	ldi	r21, 0x11	; 17
 d6e:	07 c0       	rjmp	.+14     	; 0xd7e <__udivmodhi4_ep>

00000d70 <__udivmodhi4_loop>:
 d70:	aa 1f       	adc	r26, r26
 d72:	bb 1f       	adc	r27, r27
 d74:	a6 17       	cp	r26, r22
 d76:	b7 07       	cpc	r27, r23
 d78:	10 f0       	brcs	.+4      	; 0xd7e <__udivmodhi4_ep>
 d7a:	a6 1b       	sub	r26, r22
 d7c:	b7 0b       	sbc	r27, r23

00000d7e <__udivmodhi4_ep>:
 d7e:	88 1f       	adc	r24, r24
 d80:	99 1f       	adc	r25, r25
 d82:	5a 95       	dec	r21
 d84:	a9 f7       	brne	.-22     	; 0xd70 <__udivmodhi4_loop>
 d86:	80 95       	com	r24
 d88:	90 95       	com	r25
 d8a:	bc 01       	movw	r22, r24
 d8c:	cd 01       	movw	r24, r26
 d8e:	08 95       	ret

00000d90 <_exit>:
 d90:	f8 94       	cli

00000d92 <__stop_program>:
 d92:	ff cf       	rjmp	.-2      	; 0xd92 <__stop_program>
